(i__main__
Mip
p1
(dp2
S'users'
p3
(dp4
VConversion script
p5
I5
sV205.180.71.xxx
p6
I1
sVOlivier
p7
I11
sVSomeone else
p8
I13
sVVicki Rosenzweig
p9
I4
ssS'decay'
p10
F0.01
sS'current_flow_betweeness'
p11
(dp12
I1
F0.037986177767770871
sI2
F0.36059304835371581
sI3
F0.23045053872153448
sI4
F0.17435582889885251
sI5
F0.0037986177767770357
sI6
F0.10424267077853425
sI7
F0.10424267077853422
sI8
F0.14794242878138325
sI9
F0.24778401895307736
sI10
F0.14794242878138311
sI11
F0.08272588471958453
sI12
F0.07445329624762613
sI13
F0.020174231977117107
ssS'minIncrement'
p13
F0.10000000000000001
sS'currentVersion'
p14
(iversion
Version
p15
(dp16
S'date'
p17
cdatetime
datetime
p18
(S'\x07\xd2\t\r\x15+*\x00\x00\x00'
tRp19
sS'text'
p20
VYale University, one of eight Ivy League universities, was founded in Old Saybrook, Connecticut, U.S.A. in 1701 by Congregationalist ministers. It moved to New Haven, Connecticut in 1716. The Yale campus is in downtown New Haven, and the university is one of the city's largest employers, which sometimes leads to tension between students and local residents.\u000aThe college's original name was the "Collegiate School"; it was renamed "Yale" after an early benefactor, Elihu Yale.\u000aIn the early 20th century, Yale merged with the Sheffield Scientific School.\u000aIn addition to a respected undergraduate college, Yale is noted for its law school, medical school, and school of music. The Divinity School was founded in the early 19th century by Congregationalists who felt that the Harvard University divinity school had become too liberal.\u000aYale's library system is among the largest in North America. The main library, Sterling Memorial Library, contains about 4 million volumes. The Beinecke Rare Book Library is housed in a marble building designed by Gordon Bunshaft, of the firm of Skidmore, Owings, and Merrill. Its courtyard sculptures are by Isamu Noguchi.\u000aOther resources include the Peabody Museum of Natural History and a museum of British art.\u000aYale's sports teams are called the Bulldogs.  They participate in the NCAA's Division I-A.\u000a----\u000aLinks:\u000a* Yale's website is found at http://www.yale.edu
p21
sS'paragraphs'
p22
(lp23
(iversion
Paragraph
p24
(dp25
g20
VYale University, one of eight Ivy League universities, was founded in Old Saybrook, Connecticut, U.S.A. in 1701 by Congregationalist ministers. It moved to New Haven, Connecticut in 1716. The Yale campus is in downtown New Haven, and the university is one of the city's largest employers, which sometimes leads to tension between students and local residents.
p26
sS'changed'
p27
I00
sS'nextindex'
p28
NsS'lastindex'
p29
Nsba(iversion
Paragraph
p30
(dp31
g20
VThe college's original name was the "Collegiate School"; it was renamed "Yale" after an early benefactor, Elihu Yale.
p32
sg27
I00
sg28
Nsg29
Nsba(iversion
Paragraph
p33
(dp34
g20
VIn the early 20th century, Yale merged with the Sheffield Scientific School.
p35
sg27
I00
sg28
Nsg29
Nsba(iversion
Paragraph
p36
(dp37
g20
VIn addition to a respected undergraduate college, Yale is noted for its law school, medical school, and school of music. The Divinity School was founded in the early 19th century by Congregationalists who felt that the Harvard University divinity school had become too liberal.
p38
sg27
I00
sg28
Nsg29
Nsba(iversion
Paragraph
p39
(dp40
g20
VYale's library system is among the largest in North America. The main library, Sterling Memorial Library, contains about 4 million volumes. The Beinecke Rare Book Library is housed in a marble building designed by Gordon Bunshaft, of the firm of Skidmore, Owings, and Merrill. Its courtyard sculptures are by Isamu Noguchi.
p41
sg27
I00
sg28
Nsg29
Nsba(iversion
Paragraph
p42
(dp43
g20
VOther resources include the Peabody Museum of Natural History and a museum of British art.
p44
sg27
I00
sg28
Nsg29
Nsba(iversion
Paragraph
p45
(dp46
g20
VYale's sports teams are called the Bulldogs.  They participate in the NCAA's Division I-A.
p47
sg27
I00
sg28
Nsg29
Nsba(iversion
Paragraph
p48
(dp49
g20
V----Links:* Yale's website is found at http://www.yale.edu
p50
sg27
I00
sg28
Nsg29
NsbasS'author'
p51
g8
sbsS'pars'
p52
(lp53
(dp54
I0
I2
sI1
I3
sa(dp55
I0
I2
sI1
I3
sa(dp56
I0
I2
sI1
I3
sa(dp57
I0
I2
sI1
I6
sI2
I7
sI3
I8
sI4
I9
sI5
I10
sI6
I3
sa(dp58
I0
I2
sI1
I6
sI2
I7
sI3
I8
sI4
I9
sI5
I10
sI6
I12
sI7
I3
sa(dp59
I0
I2
sI1
I6
sI2
I7
sI3
I8
sI4
I9
sI5
I10
sI6
I12
sI7
I3
sasS'nodeIdsToUsers'
p60
(dp61
I1
g6
sI11
g7
sI4
g9
sI5
g5
sI13
g8
ssS'sigIncrement'
p62
I1
sS'lastID'
p63
I13
sS'mip'
p64
ccopy_reg
_reconstructor
p65
(cnetworkx.classes.graph
Graph
p66
c__builtin__
object
p67
NtRp68
(dp69
S'node'
p70
(dp71
I1
(dp72
S'type'
p73
S'user'
p74
ssI2
(dp75
I0
I0
sI1
I0
sI2
I0
sI3
I0
sI4
I0
sI5
I0
sS'deleted'
p76
I0
sg73
S'par'
p77
ssI3
(dp78
I0
I1
sI1
I1
sI2
I1
sI3
I6
sI4
I7
sI5
I7
sg76
I0
sg73
g77
ssI4
(dp79
g73
g74
ssI5
(dp80
g73
g74
ssI6
(dp81
g76
I0
sI4
I1
sI3
I1
sg73
g77
sI5
I1
ssI7
(dp82
g76
I0
sI4
I2
sI3
I2
sg73
g77
sI5
I2
ssI8
(dp83
g76
I0
sI4
I3
sI3
I3
sg73
g77
sI5
I3
ssI9
(dp84
g76
I0
sI4
I4
sI3
I4
sg73
g77
sI5
I4
ssI10
(dp85
g76
I0
sI4
I5
sI3
I5
sg73
g77
sI5
I5
ssI11
(dp86
g73
g74
ssI12
(dp87
g76
I0
sI4
I6
sg73
g77
sI5
I6
ssI13
(dp88
g73
g74
sssS'graph'
p89
(dp90
sS'edge'
p91
(dp92
I1
(dp93
I2
(dp94
S'updated'
p95
I0
sg73
S'u-p'
p96
sS'weight'
p97
I1
ssI3
(dp98
g95
I0
sg73
g96
sg97
I1
sssI2
(dp99
I1
g94
sI3
(dp100
g95
I0
sg73
S'p-p'
p101
sg97
F1.1700000000000002
ssI4
(dp102
g95
I0
sg73
S'u-p'
p103
sg97
F1.1000000000000001
ssI5
(dp104
g95
I0
sg73
g103
sg97
F0.10000000000000001
ssI6
(dp105
g95
I0
sg73
S'p-p'
p106
sg97
F0.97999999999999998
ssI7
(dp107
g95
I0
sg73
g106
sg97
F0.97999999999999998
ssI8
(dp108
g95
I0
sg73
g106
sg97
F0.97999999999999998
ssI9
(dp109
g95
I1
sg73
g106
sg97
F1.0900000000000001
ssI10
(dp110
g95
I0
sg73
g106
sg97
F0.97999999999999998
ssI11
(dp111
g95
I0
sg73
g103
sg97
F0.10000000000000001
ssI12
(dp112
g95
I0
sg73
g106
sg97
F0.090000000000000011
ssI13
(dp113
g95
I1
sg73
g103
sg97
F0.10000000000000001
sssI3
(dp114
I1
g98
sI2
g100
sI4
(dp115
g95
I0
sg73
g103
sg97
F1.1000000000000001
ssI5
(dp116
g95
I0
sg73
g103
sg97
F0.10000000000000001
ssI6
(dp117
g95
I0
sg73
g106
sg97
F0.080000000000000016
ssI7
(dp118
g95
I0
sg73
g106
sg97
F0.080000000000000016
ssI8
(dp119
g95
I0
sg73
g106
sg97
F0.080000000000000016
ssI9
(dp120
g95
I1
sg73
g106
sg97
F0.19
ssI10
(dp121
g95
I0
sg73
g106
sg97
F0.080000000000000016
ssI11
(dp122
g95
I0
sg73
g103
sg97
F0.10000000000000001
ssI12
(dp123
g95
I0
sg73
g106
sg97
F0.090000000000000011
ssI13
(dp124
g95
I1
sg73
g103
sg97
F0.10000000000000001
sssI4
(dp125
I2
g102
sI3
g115
sI6
(dp126
g95
I0
sg73
g103
sg97
I1
ssI7
(dp127
g95
I0
sg73
g103
sg97
I1
ssI8
(dp128
g95
I0
sg73
g103
sg97
I1
ssI9
(dp129
g95
I0
sg73
g103
sg97
I1
ssI10
(dp130
g95
I0
sg73
g103
sg97
I1
sssI5
(dp131
I2
g104
sI3
g116
ssI6
(dp132
I2
g105
sI3
g117
sI4
g126
sI7
(dp133
g95
I0
sg73
g106
sg97
F0.97999999999999998
ssI8
(dp134
g95
I0
sg73
g106
sg97
F0.97999999999999998
ssI9
(dp135
g95
I0
sg73
g106
sg97
F0.97999999999999998
ssI10
(dp136
g95
I0
sg73
g106
sg97
F0.97999999999999998
sssI7
(dp137
I2
g107
sI3
g118
sI4
g127
sI6
g133
sI8
(dp138
g95
I0
sg73
g106
sg97
F0.97999999999999998
ssI9
(dp139
g95
I0
sg73
g106
sg97
F0.97999999999999998
ssI10
(dp140
g95
I0
sg73
g106
sg97
F0.97999999999999998
sssI8
(dp141
I2
g108
sI3
g119
sI4
g128
sI6
g134
sI7
g138
sI9
(dp142
g95
I1
sg73
g106
sg97
F1.0900000000000001
ssI10
(dp143
g95
I0
sg73
g106
sg97
F0.97999999999999998
ssI11
(dp144
g95
I0
sg73
g103
sg97
F0.10000000000000001
ssI12
(dp145
g95
I0
sg73
g106
sg97
F0.090000000000000011
ssI13
(dp146
g95
I1
sg73
g103
sg97
F0.10000000000000001
sssI9
(dp147
I2
g109
sI3
g120
sI4
g129
sI6
g135
sI7
g139
sI8
g142
sI10
(dp148
g95
I1
sg73
g106
sg97
F1.0900000000000001
ssI11
(dp149
g95
I0
sg73
g103
sg97
F0.10000000000000001
ssI12
(dp150
g95
I0
sg73
g106
sg97
F0.090000000000000011
ssI13
(dp151
g95
I1
sg73
g103
sg97
I1
sssI10
(dp152
I2
g110
sI3
g121
sI4
g130
sI6
g136
sI7
g140
sI8
g143
sI9
g148
sI11
(dp153
g95
I0
sg73
g103
sg97
F0.10000000000000001
ssI12
(dp154
g95
I0
sg73
g106
sg97
F0.090000000000000011
ssI13
(dp155
g95
I1
sg73
g103
sg97
F0.10000000000000001
sssI11
(dp156
I2
g111
sI3
g122
sI8
g144
sI9
g149
sI10
g153
sI12
(dp157
g95
I0
sg73
g103
sg97
I1
sssI12
(dp158
I2
g112
sI3
g123
sI8
g145
sI9
g150
sI10
g154
sI11
g157
ssI13
(dp159
I8
g146
sI9
g151
sI2
g113
sI3
g124
sI10
g155
sssS'adj'
p160
g92
sbsS'latestVersion'
p161
I5
sS'log'
p162
(lp163
(i__main__
Session
p164
(dp165
g74
g6
sS'actions'
p166
(lp167
(i__main__
Action
p168
(dp169
S'ao'
p170
I2
sS'mipNodeID'
p171
I-1
sS'weightInc'
p172
I1
sS'desc'
p173
S'Yale University founded in Old Saybrook, Connecticut, USA in 1701 by Congregationalist ministers. Moved to New Haven, Connecticut in 1716.'
p174
sS'actType'
p175
S'sigEdit'
p176
sg74
g6
sba(i__main__
Action
p177
(dp178
g170
I3
sg171
I-1
sg172
I1
sg173
S'----website is http://www.yale.edu'
p179
sg175
g176
sg74
g6
sbasS'time'
p180
I0
sba(i__main__
Session
p181
(dp182
g74
g9
sg166
(lp183
(i__main__
Action
p184
(dp185
g170
I2
sg171
I-1
sg172
F0.10000000000000001
sg173
S'Yale University, one of eight Ivy League universities, was founded in Old Saybrook, Connecticut, U.S.A. in 1701 by Congregationalist ministers. It moved to New Haven, Connecticut in 1716.'
p186
sg175
S'smallEdit'
p187
sg74
g9
sba(i__main__
Action
p188
(dp189
g170
I3
sg171
I-1
sg172
I1
sg173
S"----Links:* Yale's website is found at http://www.yale.edu"
p190
sg175
g176
sg74
g9
sbasg180
I1
sba(i__main__
Session
p191
(dp192
g74
g5
sg166
(lp193
(i__main__
Action
p194
(dp195
g170
I2
sg171
I-1
sg172
F0.10000000000000001
sg173
S'Yale University, one of eight Ivy League universities, was founded in Old Saybrook, Connecticut, U.S.A. in 1701 by Congregationalist ministers. It moved to New Haven, Connecticut in 1716.'
p196
sg175
g187
sg74
g5
sba(i__main__
Action
p197
(dp198
g170
I3
sg171
I-1
sg172
F0.10000000000000001
sg173
S"See also:*Elihu Yale----Links:* Yale's website is found at http://www.yale.edu"
p199
sg175
g187
sg74
g5
sbasg180
I2
sba(i__main__
Session
p200
(dp201
g74
VVicki Rosenzweig
p202
sg166
(lp203
(i__main__
Action
p204
(dp205
g170
I2
sg171
I-1
sg172
I1
sg173
S"Yale University, one of eight Ivy League universities, was founded in Old Saybrook, Connecticut, U.S.A. in 1701 by Congregationalist ministers. It moved to New Haven, Connecticut in 1716. The Yale campus is in downtown New Haven, and the university is one of the city's largest employers, which sometimes leads to tension between students and local residents."
p206
sg175
g176
sg74
g202
sba(i__main__
Action
p207
(dp208
g170
I6
sg171
I-1
sg172
I1
sg173
S'The college\'s original name was the "Collegiate School"; it was renamed "Yale" after an early benefactor, Elihu Yale.'
p209
sg175
S'added'
p210
sg74
g202
sba(i__main__
Action
p211
(dp212
g170
I7
sg171
I-1
sg172
I1
sg173
S'In the early 20th century, Yale merged with the Sheffield Scientific School.'
p213
sg175
g210
sg74
g202
sba(i__main__
Action
p214
(dp215
g170
I8
sg171
I-1
sg172
I1
sg173
S'In addition to a respected undergraduate college, Yale is noted for its law school, medical school, and school of music. The Divinity School was founded in the early 19th century by Congregationalists who felt that the Harvard University divinity school had become too liberal.'
p216
sg175
g210
sg74
g202
sba(i__main__
Action
p217
(dp218
g170
I9
sg171
I-1
sg172
I1
sg173
S"Yale's library is among the largest in North America. The Beinecke Rare Book Library is housed in a marble building designed by Isamu Noguchi."
p219
sg175
g210
sg74
g202
sba(i__main__
Action
p220
(dp221
g170
I10
sg171
I-1
sg172
I1
sg173
S'Other resources include the Peabody Museum of Natural History and a museum of British art.'
p222
sg175
g210
sg74
g202
sba(i__main__
Action
p223
(dp224
g170
I3
sg171
I-1
sg172
F0.10000000000000001
sg173
S"----Links:* Yale's website is found at http://www.yale.edu"
p225
sg175
g187
sg74
g202
sbasg180
I3
sba(i__main__
Session
p226
(dp227
g74
g7
sg166
(lp228
(i__main__
Action
p229
(dp230
g170
I2
sg171
I-1
sg172
F0.10000000000000001
sg173
S"Yale University, one of eight Ivy League universities, was founded in Old Saybrook, Connecticut, U.S.A. in 1701 by Congregationalist ministers. It moved to New Haven, Connecticut in 1716. The Yale campus is in downtown New Haven, and the university is one of the city's largest employers, which sometimes leads to tension between students and local residents."
p231
sg175
g187
sg74
g7
sba(i__main__
Action
p232
(dp233
g170
I8
sg171
I-1
sg172
F0.10000000000000001
sg173
S'In addition to a respected undergraduate college, Yale is noted for its law school, medical school, and school of music. The Divinity School was founded in the early 19th century by Congregationalists who felt that the Harvard University divinity school had become too liberal.'
p234
sg175
g187
sg74
g7
sba(i__main__
Action
p235
(dp236
g170
I9
sg171
I-1
sg172
F0.10000000000000001
sg173
S"Yale's library is among the largest in North America. The Beinecke Rare Book Library is housed in a marble building designed by Isamu Noguchi."
p237
sg175
g187
sg74
g7
sba(i__main__
Action
p238
(dp239
g170
I10
sg171
I-1
sg172
F0.10000000000000001
sg173
S'Other resources include the Peabody Museum of Natural History and a museum of British art.'
p240
sg175
g187
sg74
g7
sba(i__main__
Action
p241
(dp242
g170
I12
sg171
I-1
sg172
I1
sg173
S"Yale's sports teams are called the Bulldogs.  They participate in the NCAA's Division I-A."
p243
sg175
g210
sg74
g7
sba(i__main__
Action
p244
(dp245
g170
I3
sg171
I-1
sg172
F0.10000000000000001
sg173
S"----Links:* Yale's website is found at http://www.yale.edu"
p246
sg175
g187
sg74
g7
sbasg180
I4
sba(i__main__
Session
p247
(dp248
g74
g8
sg166
(lp249
(i__main__
Action
p250
(dp251
g170
I2
sg171
I-1
sg172
F0.10000000000000001
sg173
S"Yale University, one of eight Ivy League universities, was founded in Old Saybrook, Connecticut, U.S.A. in 1701 by Congregationalist ministers. It moved to New Haven, Connecticut in 1716. The Yale campus is in downtown New Haven, and the university is one of the city's largest employers, which sometimes leads to tension between students and local residents."
p252
sg175
g187
sg74
g8
sba(i__main__
Action
p253
(dp254
g170
I8
sg171
I-1
sg172
F0.10000000000000001
sg173
S'In addition to a respected undergraduate college, Yale is noted for its law school, medical school, and school of music. The Divinity School was founded in the early 19th century by Congregationalists who felt that the Harvard University divinity school had become too liberal.'
p255
sg175
g187
sg74
g8
sba(i__main__
Action
p256
(dp257
g170
I9
sg171
I-1
sg172
I1
sg173
S"Yale's library system is among the largest in North America. The main library, Sterling Memorial Library, contains about 4 million volumes. The Beinecke Rare Book Library is housed in a marble building designed by Gordon Bunshaft, of the firm of Skidmore, Owings, and Merrill. Its courtyard sculptures are by Isamu Noguchi."
p258
sg175
g176
sg74
g8
sba(i__main__
Action
p259
(dp260
g170
I10
sg171
I-1
sg172
F0.10000000000000001
sg173
S'Other resources include the Peabody Museum of Natural History and a museum of British art.'
p261
sg175
g187
sg74
g8
sba(i__main__
Action
p262
(dp263
g170
I3
sg171
I-1
sg172
F0.10000000000000001
sg173
S"----Links:* Yale's website is found at http://www.yale.edu"
p264
sg175
g187
sg74
g8
sbasg180
I5
sbasb.