(i__main__
Mip
p1
(dp2
S'users'
p3
(dp4
VConversion script
p5
I5
sV205.180.71.xxx
p6
I1
sVOlivier
p7
I11
sVVicki Rosenzweig
p8
I4
ssS'decay'
p9
F0.01
sS'current_flow_betweeness'
p10
(dp11
I1
F0.042060433184389526
sI2
F0.38087450839235693
sI3
F0.23759295064986025
sI4
F0.18660518976281143
sI5
F0.0042060433184389978
sI6
F0.1089727500846486
sI7
F0.10897275008464863
sI8
F0.14481557604298162
sI9
F0.14481557604298159
sI10
F0.14481557604298168
sI11
F0.08531617157123092
sI12
F0.085316171571230892
ssS'minIncrement'
p12
F0.10000000000000001
sS'currentVersion'
p13
(iversion
Version
p14
(dp15
S'date'
p16
cdatetime
datetime
p17
(S'\x07\xd2\t\x03\x0b0+\x00\x00\x00'
tRp18
sS'text'
p19
VYale University, one of eight Ivy League universities, was founded in Old Saybrook, Connecticut, U.S.A. in 1701 by Congregationalist ministers. It moved to New Haven, Connecticut in 1716. The Yale campus is in downtown New Haven, and the university is one of the city's largest employers, which sometimes leads to tension between students and local residents.\u000aThe college's original name was the "Collegiate School"; it was renamed "Yale" after an early benefactor, Elihu Yale.\u000aIn the early 20th century, Yale merged with the Sheffield Scientific School.\u000aIn addition to a respected undergraduate college, Yale is noted for its law school, medical school, and school of music. The Divinity School was founded in the early 19th century by Congregationalists who felt that the Harvard University divinity school had become too liberal.\u000aYale's library is among the largest in North America. The Beinecke Rare Book Library is housed in a marble building designed by Isamu Noguchi.\u000aOther resources include the Peabody Museum of Natural History and a museum of British art.\u000aYale's sports teams are called the Bulldogs.  They participate in the NCAA's Division I-A.\u000a----\u000aLinks:\u000a* Yale's website is found at http://www.yale.edu
p20
sS'paragraphs'
p21
(lp22
(iversion
Paragraph
p23
(dp24
g19
VYale University, one of eight Ivy League universities, was founded in Old Saybrook, Connecticut, U.S.A. in 1701 by Congregationalist ministers. It moved to New Haven, Connecticut in 1716. The Yale campus is in downtown New Haven, and the university is one of the city's largest employers, which sometimes leads to tension between students and local residents.
p25
sS'changed'
p26
I00
sS'nextindex'
p27
NsS'lastindex'
p28
Nsba(iversion
Paragraph
p29
(dp30
g19
VThe college's original name was the "Collegiate School"; it was renamed "Yale" after an early benefactor, Elihu Yale.
p31
sg26
I00
sg27
Nsg28
Nsba(iversion
Paragraph
p32
(dp33
g19
VIn the early 20th century, Yale merged with the Sheffield Scientific School.
p34
sg26
I00
sg27
Nsg28
Nsba(iversion
Paragraph
p35
(dp36
g19
VIn addition to a respected undergraduate college, Yale is noted for its law school, medical school, and school of music. The Divinity School was founded in the early 19th century by Congregationalists who felt that the Harvard University divinity school had become too liberal.
p37
sg26
I00
sg27
Nsg28
Nsba(iversion
Paragraph
p38
(dp39
g19
VYale's library is among the largest in North America. The Beinecke Rare Book Library is housed in a marble building designed by Isamu Noguchi.
p40
sg26
I00
sg27
Nsg28
Nsba(iversion
Paragraph
p41
(dp42
g19
VOther resources include the Peabody Museum of Natural History and a museum of British art.
p43
sg26
I00
sg27
Nsg28
Nsba(iversion
Paragraph
p44
(dp45
g19
VYale's sports teams are called the Bulldogs.  They participate in the NCAA's Division I-A.
p46
sg26
I00
sg27
Nsg28
Nsba(iversion
Paragraph
p47
(dp48
g19
V----Links:* Yale's website is found at http://www.yale.edu
p49
sg26
I00
sg27
Nsg28
NsbasS'author'
p50
g7
sbsS'pars'
p51
(lp52
(dp53
I0
I2
sI1
I3
sa(dp54
I0
I2
sI1
I3
sa(dp55
I0
I2
sI1
I3
sa(dp56
I0
I2
sI1
I6
sI2
I7
sI3
I8
sI4
I9
sI5
I10
sI6
I3
sa(dp57
I0
I2
sI1
I6
sI2
I7
sI3
I8
sI4
I9
sI5
I10
sI6
I12
sI7
I3
sasS'nodeIdsToUsers'
p58
(dp59
I1
g6
sI11
g7
sI4
g8
sI5
g5
ssS'sigIncrement'
p60
I1
sS'lastID'
p61
I12
sS'mip'
p62
ccopy_reg
_reconstructor
p63
(cnetworkx.classes.graph
Graph
p64
c__builtin__
object
p65
NtRp66
(dp67
S'node'
p68
(dp69
I1
(dp70
S'type'
p71
S'user'
p72
ssI2
(dp73
I0
I0
sI1
I0
sI2
I0
sI3
I0
sI4
I0
sS'deleted'
p74
I0
sg71
S'par'
p75
ssI3
(dp76
I0
I1
sI1
I1
sI2
I1
sI3
I6
sI4
I7
sg74
I0
sg71
g75
ssI4
(dp77
g71
g72
ssI5
(dp78
g71
g72
ssI6
(dp79
g74
I0
sI4
I1
sI3
I1
sg71
g75
ssI7
(dp80
g74
I0
sI4
I2
sI3
I2
sg71
g75
ssI8
(dp81
g74
I0
sI4
I3
sI3
I3
sg71
g75
ssI9
(dp82
g74
I0
sI4
I4
sI3
I4
sg71
g75
ssI10
(dp83
g74
I0
sI4
I5
sI3
I5
sg71
g75
ssI11
(dp84
g71
g72
ssI12
(dp85
g74
I0
sI4
I6
sg71
g75
sssS'graph'
p86
(dp87
sS'edge'
p88
(dp89
I1
(dp90
I2
(dp91
S'updated'
p92
I0
sg71
S'u-p'
p93
sS'weight'
p94
I1
ssI3
(dp95
g92
I0
sg71
g93
sg94
I1
sssI2
(dp96
I1
g91
sI3
(dp97
g92
I0
sg71
S'p-p'
p98
sg94
F1.1800000000000002
ssI4
(dp99
g92
I0
sg71
S'u-p'
p100
sg94
F1.1000000000000001
ssI5
(dp101
g92
I0
sg71
g100
sg94
F0.10000000000000001
ssI6
(dp102
g92
I0
sg71
S'p-p'
p103
sg94
F0.98999999999999999
ssI7
(dp104
g92
I0
sg71
g103
sg94
F0.98999999999999999
ssI8
(dp105
g92
I0
sg71
g103
sg94
F0.98999999999999999
ssI9
(dp106
g92
I0
sg71
g103
sg94
F0.98999999999999999
ssI10
(dp107
g92
I0
sg71
g103
sg94
F0.98999999999999999
ssI11
(dp108
g92
I1
sg71
g100
sg94
F0.10000000000000001
ssI12
(dp109
g92
I1
sg71
g103
sg94
F0.10000000000000001
sssI3
(dp110
I1
g95
sI2
g97
sI4
(dp111
g92
I0
sg71
g100
sg94
F1.1000000000000001
ssI5
(dp112
g92
I0
sg71
g100
sg94
F0.10000000000000001
ssI6
(dp113
g92
I0
sg71
g103
sg94
F0.090000000000000011
ssI7
(dp114
g92
I0
sg71
g103
sg94
F0.090000000000000011
ssI8
(dp115
g92
I0
sg71
g103
sg94
F0.090000000000000011
ssI9
(dp116
g92
I0
sg71
g103
sg94
F0.090000000000000011
ssI10
(dp117
g92
I0
sg71
g103
sg94
F0.090000000000000011
ssI11
(dp118
g92
I1
sg71
g100
sg94
F0.10000000000000001
ssI12
(dp119
g92
I1
sg71
g103
sg94
F0.10000000000000001
sssI4
(dp120
I2
g99
sI3
g111
sI6
(dp121
g92
I0
sg71
g100
sg94
I1
ssI7
(dp122
g92
I0
sg71
g100
sg94
I1
ssI8
(dp123
g92
I0
sg71
g100
sg94
I1
ssI9
(dp124
g92
I0
sg71
g100
sg94
I1
ssI10
(dp125
g92
I0
sg71
g100
sg94
I1
sssI5
(dp126
I2
g101
sI3
g112
ssI6
(dp127
I2
g102
sI3
g113
sI4
g121
sI7
(dp128
g92
I0
sg71
g103
sg94
F0.98999999999999999
ssI8
(dp129
g92
I0
sg71
g103
sg94
F0.98999999999999999
ssI9
(dp130
g92
I0
sg71
g103
sg94
F0.98999999999999999
ssI10
(dp131
g92
I0
sg71
g103
sg94
F0.98999999999999999
sssI7
(dp132
I2
g104
sI3
g114
sI4
g122
sI6
g128
sI8
(dp133
g92
I0
sg71
g103
sg94
F0.98999999999999999
ssI9
(dp134
g92
I0
sg71
g103
sg94
F0.98999999999999999
ssI10
(dp135
g92
I0
sg71
g103
sg94
F0.98999999999999999
sssI8
(dp136
I2
g105
sI3
g115
sI4
g123
sI6
g129
sI7
g133
sI9
(dp137
g92
I0
sg71
g103
sg94
F0.98999999999999999
ssI10
(dp138
g92
I0
sg71
g103
sg94
F0.98999999999999999
ssI11
(dp139
g92
I1
sg71
g100
sg94
F0.10000000000000001
ssI12
(dp140
g92
I1
sg71
g103
sg94
F0.10000000000000001
sssI9
(dp141
I2
g106
sI3
g116
sI4
g124
sI6
g130
sI7
g134
sI8
g137
sI10
(dp142
g92
I0
sg71
g103
sg94
F0.98999999999999999
ssI11
(dp143
g92
I1
sg71
g100
sg94
F0.10000000000000001
ssI12
(dp144
g92
I1
sg71
g103
sg94
F0.10000000000000001
sssI10
(dp145
I2
g107
sI3
g117
sI4
g125
sI6
g131
sI7
g135
sI8
g138
sI9
g142
sI11
(dp146
g92
I1
sg71
g100
sg94
F0.10000000000000001
ssI12
(dp147
g92
I1
sg71
g103
sg94
F0.10000000000000001
sssI11
(dp148
I2
g108
sI3
g118
sI8
g139
sI9
g143
sI10
g146
sI12
(dp149
g92
I1
sg71
g100
sg94
I1
sssI12
(dp150
I2
g109
sI3
g119
sI8
g140
sI9
g144
sI10
g147
sI11
g149
sssS'adj'
p151
g89
sbsS'latestVersion'
p152
I4
sS'log'
p153
(lp154
(i__main__
Session
p155
(dp156
g72
g6
sS'actions'
p157
(lp158
(i__main__
Action
p159
(dp160
S'ao'
p161
I2
sS'mipNodeID'
p162
I-1
sS'weightInc'
p163
I1
sS'desc'
p164
S'Yale University founded in Old Saybrook, Connecticut, USA in 1701 by Congregationalist ministers. Moved to New Haven, Connecticut in 1716.'
p165
sS'actType'
p166
S'sigEdit'
p167
sg72
g6
sba(i__main__
Action
p168
(dp169
g161
I3
sg162
I-1
sg163
I1
sg164
S'----website is http://www.yale.edu'
p170
sg166
g167
sg72
g6
sbasS'time'
p171
I0
sba(i__main__
Session
p172
(dp173
g72
g8
sg157
(lp174
(i__main__
Action
p175
(dp176
g161
I2
sg162
I-1
sg163
F0.10000000000000001
sg164
S'Yale University, one of eight Ivy League universities, was founded in Old Saybrook, Connecticut, U.S.A. in 1701 by Congregationalist ministers. It moved to New Haven, Connecticut in 1716.'
p177
sg166
S'smallEdit'
p178
sg72
g8
sba(i__main__
Action
p179
(dp180
g161
I3
sg162
I-1
sg163
I1
sg164
S"----Links:* Yale's website is found at http://www.yale.edu"
p181
sg166
g167
sg72
g8
sbasg171
I1
sba(i__main__
Session
p182
(dp183
g72
g5
sg157
(lp184
(i__main__
Action
p185
(dp186
g161
I2
sg162
I-1
sg163
F0.10000000000000001
sg164
S'Yale University, one of eight Ivy League universities, was founded in Old Saybrook, Connecticut, U.S.A. in 1701 by Congregationalist ministers. It moved to New Haven, Connecticut in 1716.'
p187
sg166
g178
sg72
g5
sba(i__main__
Action
p188
(dp189
g161
I3
sg162
I-1
sg163
F0.10000000000000001
sg164
S"See also:*Elihu Yale----Links:* Yale's website is found at http://www.yale.edu"
p190
sg166
g178
sg72
g5
sbasg171
I2
sba(i__main__
Session
p191
(dp192
g72
VVicki Rosenzweig
p193
sg157
(lp194
(i__main__
Action
p195
(dp196
g161
I2
sg162
I-1
sg163
I1
sg164
S"Yale University, one of eight Ivy League universities, was founded in Old Saybrook, Connecticut, U.S.A. in 1701 by Congregationalist ministers. It moved to New Haven, Connecticut in 1716. The Yale campus is in downtown New Haven, and the university is one of the city's largest employers, which sometimes leads to tension between students and local residents."
p197
sg166
g167
sg72
g193
sba(i__main__
Action
p198
(dp199
g161
I6
sg162
I-1
sg163
I1
sg164
S'The college\'s original name was the "Collegiate School"; it was renamed "Yale" after an early benefactor, Elihu Yale.'
p200
sg166
S'added'
p201
sg72
g193
sba(i__main__
Action
p202
(dp203
g161
I7
sg162
I-1
sg163
I1
sg164
S'In the early 20th century, Yale merged with the Sheffield Scientific School.'
p204
sg166
g201
sg72
g193
sba(i__main__
Action
p205
(dp206
g161
I8
sg162
I-1
sg163
I1
sg164
S'In addition to a respected undergraduate college, Yale is noted for its law school, medical school, and school of music. The Divinity School was founded in the early 19th century by Congregationalists who felt that the Harvard University divinity school had become too liberal.'
p207
sg166
g201
sg72
g193
sba(i__main__
Action
p208
(dp209
g161
I9
sg162
I-1
sg163
I1
sg164
S"Yale's library is among the largest in North America. The Beinecke Rare Book Library is housed in a marble building designed by Isamu Noguchi."
p210
sg166
g201
sg72
g193
sba(i__main__
Action
p211
(dp212
g161
I10
sg162
I-1
sg163
I1
sg164
S'Other resources include the Peabody Museum of Natural History and a museum of British art.'
p213
sg166
g201
sg72
g193
sba(i__main__
Action
p214
(dp215
g161
I3
sg162
I-1
sg163
F0.10000000000000001
sg164
S"----Links:* Yale's website is found at http://www.yale.edu"
p216
sg166
g178
sg72
g193
sbasg171
I3
sba(i__main__
Session
p217
(dp218
g72
g7
sg157
(lp219
(i__main__
Action
p220
(dp221
g161
I2
sg162
I-1
sg163
F0.10000000000000001
sg164
S"Yale University, one of eight Ivy League universities, was founded in Old Saybrook, Connecticut, U.S.A. in 1701 by Congregationalist ministers. It moved to New Haven, Connecticut in 1716. The Yale campus is in downtown New Haven, and the university is one of the city's largest employers, which sometimes leads to tension between students and local residents."
p222
sg166
g178
sg72
g7
sba(i__main__
Action
p223
(dp224
g161
I8
sg162
I-1
sg163
F0.10000000000000001
sg164
S'In addition to a respected undergraduate college, Yale is noted for its law school, medical school, and school of music. The Divinity School was founded in the early 19th century by Congregationalists who felt that the Harvard University divinity school had become too liberal.'
p225
sg166
g178
sg72
g7
sba(i__main__
Action
p226
(dp227
g161
I9
sg162
I-1
sg163
F0.10000000000000001
sg164
S"Yale's library is among the largest in North America. The Beinecke Rare Book Library is housed in a marble building designed by Isamu Noguchi."
p228
sg166
g178
sg72
g7
sba(i__main__
Action
p229
(dp230
g161
I10
sg162
I-1
sg163
F0.10000000000000001
sg164
S'Other resources include the Peabody Museum of Natural History and a museum of British art.'
p231
sg166
g178
sg72
g7
sba(i__main__
Action
p232
(dp233
g161
I12
sg162
I-1
sg163
I1
sg164
S"Yale's sports teams are called the Bulldogs.  They participate in the NCAA's Division I-A."
p234
sg166
g201
sg72
g7
sba(i__main__
Action
p235
(dp236
g161
I3
sg162
I-1
sg163
F0.10000000000000001
sg164
S"----Links:* Yale's website is found at http://www.yale.edu"
p237
sg166
g178
sg72
g7
sbasg171
I4
sbasb.