(i__main__
Mip
p1
(dp2
S'users'
p3
(dp4
VConversion script
p5
I5
sV205.180.71.xxx
p6
I1
sVVicki Rosenzweig
p7
I4
ssS'decay'
p8
F0.01
sS'current_flow_betweeness'
p9
(dp10
I1
F0.048639401755865612
sI2
F0.4099230059110901
sI3
F0.23244987748759816
sI4
F0.2119277359950352
sI5
F0.0048639401755865563
sI6
F0.1180675598950832
sI7
F0.1180675598950833
sI8
F0.1180675598950832
sI9
F0.11806755989508327
sI10
F0.11806755989508336
ssS'minIncrement'
p11
F0.10000000000000001
sS'currentVersion'
p12
(iversion
Version
p13
(dp14
S'date'
p15
cdatetime
datetime
p16
(S'\x07\xd2\x07\x06\x15\t\x1b\x00\x00\x00'
tRp17
sS'text'
p18
VYale University, one of eight Ivy League universities, was founded in Old Saybrook, Connecticut, U.S.A. in 1701 by Congregationalist ministers. It moved to New Haven, Connecticut in 1716. The Yale campus is in downtown New Haven, and the university is one of the city's largest employers, which sometimes leads to tension between students and local residents.\u000aThe college's original name was the "Collegiate School"; it was renamed "Yale" after an early benefactor, Elihu Yale.\u000aIn the early 20th century, Yale merged with the Sheffield Scientific School.\u000aIn addition to a respected undergraduate college, Yale is noted for its law school, medical school, and school of music. The Divinity School was founded in the early 19th century by Congregationalists who felt that the Harvard University divinity school had become too liberal.\u000aYale's library is among the largest in North America. The Beinecke Rare Book Library is housed in a marble building designed by Isamu Noguchi.\u000aOther resources include the Peabody Museum of Natural History and a museum of British art.\u000a----\u000aLinks:\u000a* Yale's website is found at http://www.yale.edu\u000a
p19
sS'paragraphs'
p20
(lp21
(iversion
Paragraph
p22
(dp23
g18
VYale University, one of eight Ivy League universities, was founded in Old Saybrook, Connecticut, U.S.A. in 1701 by Congregationalist ministers. It moved to New Haven, Connecticut in 1716. The Yale campus is in downtown New Haven, and the university is one of the city's largest employers, which sometimes leads to tension between students and local residents.
p24
sS'changed'
p25
I00
sS'nextindex'
p26
NsS'lastindex'
p27
Nsba(iversion
Paragraph
p28
(dp29
g18
VThe college's original name was the "Collegiate School"; it was renamed "Yale" after an early benefactor, Elihu Yale.
p30
sg25
I00
sg26
Nsg27
Nsba(iversion
Paragraph
p31
(dp32
g18
VIn the early 20th century, Yale merged with the Sheffield Scientific School.
p33
sg25
I00
sg26
Nsg27
Nsba(iversion
Paragraph
p34
(dp35
g18
VIn addition to a respected undergraduate college, Yale is noted for its law school, medical school, and school of music. The Divinity School was founded in the early 19th century by Congregationalists who felt that the Harvard University divinity school had become too liberal.
p36
sg25
I00
sg26
Nsg27
Nsba(iversion
Paragraph
p37
(dp38
g18
VYale's library is among the largest in North America. The Beinecke Rare Book Library is housed in a marble building designed by Isamu Noguchi.
p39
sg25
I00
sg26
Nsg27
Nsba(iversion
Paragraph
p40
(dp41
g18
VOther resources include the Peabody Museum of Natural History and a museum of British art.
p42
sg25
I00
sg26
Nsg27
Nsba(iversion
Paragraph
p43
(dp44
g18
V----Links:* Yale's website is found at http://www.yale.edu
p45
sg25
I00
sg26
Nsg27
NsbasS'author'
p46
VVicki Rosenzweig
p47
sbsS'pars'
p48
(lp49
(dp50
I0
I2
sI1
I3
sa(dp51
I0
I2
sI1
I3
sa(dp52
I0
I2
sI1
I3
sa(dp53
I0
I2
sI1
I6
sI2
I7
sI3
I8
sI4
I9
sI5
I10
sI6
I3
sasS'nodeIdsToUsers'
p54
(dp55
I1
g6
sI4
g7
sI5
g5
ssS'sigIncrement'
p56
I1
sS'lastID'
p57
I10
sS'mip'
p58
ccopy_reg
_reconstructor
p59
(cnetworkx.classes.graph
Graph
p60
c__builtin__
object
p61
NtRp62
(dp63
S'node'
p64
(dp65
I1
(dp66
S'type'
p67
S'user'
p68
ssI2
(dp69
I0
I0
sI1
I0
sI2
I0
sI3
I0
sS'deleted'
p70
I0
sg67
S'par'
p71
ssI3
(dp72
I0
I1
sI1
I1
sI2
I1
sI3
I6
sg70
I0
sg67
g71
ssI4
(dp73
g67
g68
ssI5
(dp74
g67
g68
ssI6
(dp75
g70
I0
sI3
I1
sg67
g71
ssI7
(dp76
g70
I0
sI3
I2
sg67
g71
ssI8
(dp77
g70
I0
sI3
I3
sg67
g71
ssI9
(dp78
g70
I0
sI3
I4
sg67
g71
ssI10
(dp79
g70
I0
sI3
I5
sg67
g71
sssS'graph'
p80
(dp81
sS'edge'
p82
(dp83
I1
(dp84
I2
(dp85
S'updated'
p86
I0
sg67
S'u-p'
p87
sS'weight'
p88
I1
ssI3
(dp89
g86
I0
sg67
g87
sg88
I1
sssI2
(dp90
I1
g85
sI3
(dp91
g86
I1
sg67
S'p-p'
p92
sg88
F1.1900000000000002
ssI4
(dp93
g86
I1
sg67
S'u-p'
p94
sg88
F1.1000000000000001
ssI5
(dp95
g86
I0
sg67
g94
sg88
F0.10000000000000001
ssI6
(dp96
g86
I1
sg67
S'p-p'
p97
sg88
I1
ssI7
(dp98
g86
I1
sg67
g97
sg88
I1
ssI8
(dp99
g86
I1
sg67
g97
sg88
I1
ssI9
(dp100
g86
I1
sg67
g97
sg88
I1
ssI10
(dp101
g86
I1
sg67
g97
sg88
I1
sssI3
(dp102
I1
g89
sI2
g91
sI4
(dp103
g86
I1
sg67
g94
sg88
F1.1000000000000001
ssI5
(dp104
g86
I0
sg67
g94
sg88
F0.10000000000000001
ssI6
(dp105
g86
I1
sg67
g97
sg88
F0.10000000000000001
ssI7
(dp106
g86
I1
sg67
g97
sg88
F0.10000000000000001
ssI8
(dp107
g86
I1
sg67
g97
sg88
F0.10000000000000001
ssI9
(dp108
g86
I1
sg67
g97
sg88
F0.10000000000000001
ssI10
(dp109
g86
I1
sg67
g97
sg88
F0.10000000000000001
sssI4
(dp110
I2
g93
sI3
g103
sI6
(dp111
g86
I1
sg67
g94
sg88
I1
ssI7
(dp112
g86
I1
sg67
g94
sg88
I1
ssI8
(dp113
g86
I1
sg67
g94
sg88
I1
ssI9
(dp114
g86
I1
sg67
g94
sg88
I1
ssI10
(dp115
g86
I1
sg67
g94
sg88
I1
sssI5
(dp116
I2
g95
sI3
g104
ssI6
(dp117
I2
g96
sI3
g105
sI4
g111
sI7
(dp118
g86
I1
sg67
g97
sg88
I1
ssI8
(dp119
g86
I1
sg67
g97
sg88
I1
ssI9
(dp120
g86
I1
sg67
g97
sg88
I1
ssI10
(dp121
g86
I1
sg67
g97
sg88
I1
sssI7
(dp122
I2
g98
sI3
g106
sI4
g112
sI6
g118
sI8
(dp123
g86
I1
sg67
g97
sg88
I1
ssI9
(dp124
g86
I1
sg67
g97
sg88
I1
ssI10
(dp125
g86
I1
sg67
g97
sg88
I1
sssI8
(dp126
I2
g99
sI3
g107
sI4
g113
sI6
g119
sI7
g123
sI9
(dp127
g86
I1
sg67
g97
sg88
I1
ssI10
(dp128
g86
I1
sg67
g97
sg88
I1
sssI9
(dp129
I2
g100
sI3
g108
sI4
g114
sI6
g120
sI7
g124
sI8
g127
sI10
(dp130
g86
I1
sg67
g97
sg88
I1
sssI10
(dp131
I2
g101
sI3
g109
sI4
g115
sI6
g121
sI7
g125
sI8
g128
sI9
g130
sssS'adj'
p132
g83
sbsS'latestVersion'
p133
I3
sS'log'
p134
(lp135
(i__main__
Session
p136
(dp137
g68
g6
sS'actions'
p138
(lp139
(i__main__
Action
p140
(dp141
S'ao'
p142
I2
sS'mipNodeID'
p143
I-1
sS'weightInc'
p144
I1
sS'desc'
p145
S'Yale University founded in Old Saybrook, Connecticut, USA in 1701 by Congregationalist ministers. Moved to New Haven, Connecticut in 1716.'
p146
sS'actType'
p147
S'sigEdit'
p148
sg68
g6
sba(i__main__
Action
p149
(dp150
g142
I3
sg143
I-1
sg144
I1
sg145
S'----website is http://www.yale.edu'
p151
sg147
g148
sg68
g6
sbasS'time'
p152
I0
sba(i__main__
Session
p153
(dp154
g68
g7
sg138
(lp155
(i__main__
Action
p156
(dp157
g142
I2
sg143
I-1
sg144
F0.10000000000000001
sg145
S'Yale University, one of eight Ivy League universities, was founded in Old Saybrook, Connecticut, U.S.A. in 1701 by Congregationalist ministers. It moved to New Haven, Connecticut in 1716.'
p158
sg147
S'smallEdit'
p159
sg68
g7
sba(i__main__
Action
p160
(dp161
g142
I3
sg143
I-1
sg144
I1
sg145
S"----Links:* Yale's website is found at http://www.yale.edu"
p162
sg147
g148
sg68
g7
sbasg152
I1
sba(i__main__
Session
p163
(dp164
g68
g5
sg138
(lp165
(i__main__
Action
p166
(dp167
g142
I2
sg143
I-1
sg144
F0.10000000000000001
sg145
S'Yale University, one of eight Ivy League universities, was founded in Old Saybrook, Connecticut, U.S.A. in 1701 by Congregationalist ministers. It moved to New Haven, Connecticut in 1716.'
p168
sg147
g159
sg68
g5
sba(i__main__
Action
p169
(dp170
g142
I3
sg143
I-1
sg144
F0.10000000000000001
sg145
S"See also:*Elihu Yale----Links:* Yale's website is found at http://www.yale.edu"
p171
sg147
g159
sg68
g5
sbasg152
I2
sba(i__main__
Session
p172
(dp173
g68
g47
sg138
(lp174
(i__main__
Action
p175
(dp176
g142
I2
sg143
I-1
sg144
I1
sg145
S"Yale University, one of eight Ivy League universities, was founded in Old Saybrook, Connecticut, U.S.A. in 1701 by Congregationalist ministers. It moved to New Haven, Connecticut in 1716. The Yale campus is in downtown New Haven, and the university is one of the city's largest employers, which sometimes leads to tension between students and local residents."
p177
sg147
g148
sg68
g47
sba(i__main__
Action
p178
(dp179
g142
I6
sg143
I-1
sg144
I1
sg145
S'The college\'s original name was the "Collegiate School"; it was renamed "Yale" after an early benefactor, Elihu Yale.'
p180
sg147
S'added'
p181
sg68
g47
sba(i__main__
Action
p182
(dp183
g142
I7
sg143
I-1
sg144
I1
sg145
S'In the early 20th century, Yale merged with the Sheffield Scientific School.'
p184
sg147
g181
sg68
g47
sba(i__main__
Action
p185
(dp186
g142
I8
sg143
I-1
sg144
I1
sg145
S'In addition to a respected undergraduate college, Yale is noted for its law school, medical school, and school of music. The Divinity School was founded in the early 19th century by Congregationalists who felt that the Harvard University divinity school had become too liberal.'
p187
sg147
g181
sg68
g47
sba(i__main__
Action
p188
(dp189
g142
I9
sg143
I-1
sg144
I1
sg145
S"Yale's library is among the largest in North America. The Beinecke Rare Book Library is housed in a marble building designed by Isamu Noguchi."
p190
sg147
g181
sg68
g47
sba(i__main__
Action
p191
(dp192
g142
I10
sg143
I-1
sg144
I1
sg145
S'Other resources include the Peabody Museum of Natural History and a museum of British art.'
p193
sg147
g181
sg68
g47
sba(i__main__
Action
p194
(dp195
g142
I3
sg143
I-1
sg144
F0.10000000000000001
sg145
S"----Links:* Yale's website is found at http://www.yale.edu"
p196
sg147
g159
sg68
g47
sbasg152
I3
sbasb.