(i__main__
prediction_pickle
p1
(dp2
S'xscatter_initial_a'
p3
NsS'similarity_linked'
p4
((lp5
(I441
I10
I0
I00
tp6
a(I441
I10
I1
I00
F0
tp7
a(I209
I5
I0
I00
tp8
a(I209
I5
I4
I00
F0
tp9
a(I209
I5
I6
F1
tp10
a(I336
I11
I1
I00
F0
tp11
a(I327
I1
I0
I00
tp12
a(I327
I1
I3
I00
F0
tp13
a(I337
I1
I0
I00
tp14
a(I337
I1
I3
I00
F0
tp15
a(I283
I6
I4
I00
F0
tp16
a(I283
I6
I8
F1
tp17
a(I61
I1
I2
I00
tp18
a(I129
I6
I5
I00
F0
tp19
a(I308
I6
I4
I00
F0
tp20
a(I308
I6
I8
I00
F0
tp21
a(I389
I1
I3
I00
F0
tp22
a(I149
I6
I4
I00
F0
tp23
a(I370
I3
I1
I00
F0
tp24
a(I370
I3
I5
I00
F0
tp25
a(I266
I3
I0
I00
tp26
a(I266
I3
I2
I00
tp27
a(I7
I2
I0
I00
tp28
a(I7
I2
I1
I00
F0
tp29
a(I7
I2
I4
F1
tp30
a(I298
I2
I0
I00
tp31
a(I333
I1
I0
I00
tp32
a(I354
I6
I8
I00
tp33
a(I455
I0
I1
I00
tp34
a(I25
I4
I0
I00
tp35
a(I25
I4
I1
I00
F0
tp36
a(I267
I5
I6
F1
tp37
a(I299
I2
I0
I00
tp38
a(I299
I2
I1
I00
F0
tp39
a(I299
I2
I4
F1
tp40
a(I299
I2
I6
I00
tp41
a(I298
I6
I4
I00
tp42
a(I298
I6
I8
I00
tp43
a(I407
I2
I1
I00
tp44
a(I407
I2
I4
I00
tp45
a(I359
I5
I3
I00
tp46
a(I359
I5
I8
I00
tp47
a(I353
I8
I6
F0.66666666666666663
tp48
a(I353
I8
I7
F0.66666666666666663
tp49
a(I353
I8
I10
I00
tp50
a(I174
I0
I2
I00
tp51
a(I174
I0
I3
I00
tp52
a(I234
I1
I0
I00
tp53
a(I2
I2
I1
I00
tp54
a(I2
I2
I3
I00
tp55
a(I266
I0
I1
I00
tp56
a(I266
I0
I2
I00
tp57
a(I266
I0
I3
I00
tp58
a(I20
I4
I0
I00
tp59
a(I20
I4
I1
I00
tp60
a(I388
I1
I3
I00
F0
tp61
a(I462
I8
I1
I00
F0
tp62
a(I383
I1
I3
I00
F0.33333333333333331
tp63
a(I172
I2
I0
I00
tp64
a(I172
I2
I4
I00
tp65
a(I133
I4
I3
I00
F0
tp66
a(I133
I4
I5
I00
tp67
a(I456
I0
I1
I00
tp68
a(I267
I4
I3
F1
tp69
a(I267
I4
I6
F1
tp70
a(I267
I4
I7
F1
tp71
a(I378
I1
I0
I00
tp72
a(I378
I1
I3
I00
tp73
a(I173
I3
I0
I00
tp74
a(I173
I3
I2
I00
tp75
a(I361
I2
I4
I00
tp76
a(I265
I3
I1
I00
tp77
a(I265
I3
I2
I00
tp78
a(I311
I2
I0
I00
tp79
a(I177
I2
I0
I00
tp80
a(I22
I4
I1
I00
tp81
a(I19
I2
I1
I00
F0
tp82
a(I2
I3
I1
F0.5
tp83
a(I2
I3
I2
I00
tp84
a(I2
I3
I4
I00
tp85
a(I356
I3
I0
I00
tp86
a(I290
I3
I0
I00
tp87
a(I290
I3
I2
I00
F0
tp88
a(I299
I4
I2
F1
tp89
a(I299
I4
I6
I00
tp90
a(I299
I4
I8
I00
tp91
a(I185
I13
I14
I00
tp92
a(I328
I1
I0
I00
tp93
a(I328
I1
I2
I00
tp94
a(I328
I1
I4
I00
F0.33333333333333331
tp95
a(I328
I1
I13
I00
tp96
a(I110
I4
I1
I00
F0
tp97
a(I6
I1
I0
I00
tp98
a(I6
I1
I2
I00
tp99
a(I6
I1
I3
F1
tp100
a(I13
I5
I1
I00
tp101
a(I171
I0
I2
I00
tp102
a(I171
I0
I3
I00
tp103
a(I382
I3
I1
I00
tp104
a(I26
I5
I0
I00
tp105
a(I26
I5
I1
I00
tp106
a(I26
I5
I2
I00
tp107
a(I26
I5
I3
I00
tp108
a(I61
I2
I1
I00
tp109
a(I269
I0
I1
I00
tp110
a(I269
I0
I2
I00
tp111
a(I269
I0
I3
I00
tp112
a(I28
I0
I1
I00
tp113
a(I28
I0
I2
I00
tp114
a(I28
I0
I4
I00
tp115
a(I28
I1
I0
I00
tp116
a(I28
I1
I2
F1
tp117
a(I28
I1
I4
F1
tp118
a(I213
I1
I2
I00
F0
tp119
a(I213
I1
I4
I00
F0
tp120
a(I3
I4
I1
I00
tp121
a(I3
I4
I3
I00
tp122
a(I267
I6
I4
F1
tp123
a(I267
I6
I5
F1
tp124
a(I371
I3
I1
I00
F0
tp125
a(I371
I3
I6
F1
tp126
a(I18
I45
I121
ttp127
sS'neighbor_after'
p128
NsS'mappings'
p129
NsS'versions'
p130
NsS'neighbor_avg_before_after'
p131
NsS'xscatter_initial_n'
p132
NsS'neighbor_before_after_values_indices'
p133
NsS'all_after'
p134
NsS'same_after'
p135
NsS'future_linked'
p136
NsS'all_avg_before_after'
p137
NsS'yscatter_all'
p138
NsS'all_before_after'
p139
NsS'yscatter_neighbor'
p140
Nsb.