(i__main__
prediction_pickle
p1
(dp2
S'anon_authors_with_sig'
p3
I96
sS'author_lev_totals'
p4
(dp5
S''
I61122
sVShoeofdeath
p6
I357
sVPeripitus
p7
I34
sVMax97230
p8
I117
sVBatman Jr.
p9
I25
sVEubulides
p10
I833
sVPatrick Lucas
p11
I21
sVNothlit
p12
I27
sVApweb
p13
I51
sVShantavira
p14
I30
sVLacrimosus
p15
I124
sVEquilibrial
p16
I18
sVCitation bot
p17
I25
sVAerlinndan
p18
I1010
sVHenry Flower
p19
I631
sVRedWolf
p20
I34
sVAempinc
p21
I3061
sVTrusilver
p22
I60
sVGrouchoBot
p23
I86
sVDanlina
p24
I117
sVEvenT
p25
I22
sVRfl
p26
I325
sVGregcaletta
p27
I268
sVSnow orchid
p28
I81
sVTimwi
p29
I172
sVAsileg
p30
I1095
sVAlexander256
p31
I3907
sVStephen Derosier
p32
I1019
sVOutriggr
p33
I3781
sVAuntof6
p34
I69
sVChobot
p35
I67
sVPakaran
p36
I448
sVTempodivalse
p37
I48
sVLigulembot
p38
I724
sVKrich
p39
I20
sVOtolemur crassicaudatus
p40
I51
sVHyacinth
p41
I458
sVShawnc
p42
I29
sVNickatnite7777
p43
I22
sVLysdexia
p44
I142
sVSeqsea
p45
I434
sVCorixidae
p46
I651
sVMirv
p47
I123
sVDontknockmysmock
p48
I157
sVBrOnXbOmBr21
p49
I2925
sVRainwarrior
p50
I6303
sVJiang
p51
I401
sVDropDeadGorgias
p52
I1542
sVZenohockey
p53
I168
sVGrahamenglish
p54
I224
sVMusic108
p55
I1747
sVLoudenvier
p56
I820
sVXanzzibar
p57
I47
sVZzyzx11
p58
I19
sVRavpapa
p59
I2040
sVDanielLevitin
p60
I1749
sVAmericanLeMans
p61
I30
sVKabbak
p62
I804
sVHandface
p63
I1593
sVSmackBot
p64
I397
sVBenchilada
p65
I32
sVThumperward
p66
I22
sVAndrew Gray
p67
I88
sVBerserk798
p68
I271
sVTxomin
p69
I100
sVWotnow
p70
I132
sVPol098
p71
I178
sVDanbarnesdavies
p72
I1370
sVStefan h
p73
I376
sVFvasconcellos
p74
I124
sVTraal
p75
I105
sVDhh28
p76
I16
sVRomanm
p77
I214
sVMeiotik
p78
I231
sVSTBotD
p79
I4338
sVCrazycomputers
p80
I133
sVHalixi72
p81
I4097
sVGene Nygaard
p82
I21
sVBarbthedarb
p83
I217
sVDianadeutsch
p84
I686
sV1or2
p85
I644
sVMission9801
p86
I210
sVDH85868993
p87
I377
sVMallocks
p88
I75
sVLaaknorBot
p89
I25
sVMark R Johnson
p90
I457
sVAntandrus
p91
I11682
sVBlahm
p92
I623
sVAvnative
p93
I432
sVWimt
p94
I818
sVDJHasis
p95
I17
sVTstrobaugh
p96
I137
sVDiMare
p97
I2379
sVStrom
p98
I529
sVSplee
p99
I105
sVMTSbot
p100
I27
sVSertrel
p101
I29
sVAruffo
p102
I14024
sVJef-Infojef
p103
I289
sVStephen B Streater
p104
I207
sVOmbudsman
p105
I651
sVFalcorian
p106
I146
sVDogman15
p107
I149
sVTdent
p108
I1135
sVThe Dark
p109
I1154
sVLuna Santin
p110
I2614
sVGregorB
p111
I1022
sVSour pickle
p112
I226
sVWli625
p113
I57
sVI'll bring the food
p114
I84
sVTalon Artaine
p115
I228
sVThepunisher911
p116
I257
sVDavid.klassy
p117
I833
sVReywas92
p118
I82
sVMr Stephen
p119
I587
ssS'named_authors'
p120
I116
sS'anon_authors'
p121
I225
sS'named_authors_with_sig'
p122
I52
sS'author_cumulatives'
p123
(lp124
F0.14510838636246054
aF0.26598375497956439
aF0.33120182109783225
aF0.37608774380464588
aF0.41848000413885872
aF0.45890630658595893
aF0.49802886853950024
aF0.52970148481556212
aF0.55996688913032233
aF0.58701433079828236
aF0.61163019297428733
aF0.63273837239381236
aF0.65083553210202283
aF0.66891199751668473
aF0.68539500232810802
aF0.70135030265404319
aF0.71552589373480258
aF0.72746650111231825
aF0.7392105127011227
aF0.75054063841895602
aF0.76111542242226704
aF0.77165916498525533
aF0.78210978322727509
aF0.79072895649024777
aF0.79934812975322056
aF0.8078327901081277
aF0.81629675616948627
aF0.82461586217600502
aF0.83210719644058151
aF0.83920533912773554
aF0.84594133167778984
aF0.85267732422784415
aF0.85934088675047859
aF0.86586993636504739
aF0.87231620880542193
aF0.87838998396192247
aF0.88386362460551504
aF0.88860261782813388
aF0.89333126390397843
aF0.89796678565885457
aF0.90245744735889077
aF0.90692741476537841
aF0.91107662062186356
aF0.91518443789125148
aF0.91908531222515388
aF0.92297583941228212
aF0.9266697708106989
aF0.93003259351233902
aF0.93302291893010503
aF0.93582699570593408
aF0.9386000310414403
aF0.94125924776242953
aF0.94364943866728745
aF0.94600858813182265
aF0.94834704330280928
aF0.95066480418024735
aF0.95291013503026545
aF0.95512442443996071
aF0.95729732526255884
aF0.95943918464483424
aF0.96128097677065549
aF0.96306068601583117
aF0.96479900667390972
aF0.96642350871747118
aF0.96796523358683839
aF0.96947591701588287
aF0.97094521185783023
aF0.97236277096590618
aF0.973738941486885
aF0.97510476486108955
aF0.97638781106109995
aF0.97767085726111025
aF0.97894355631434626
aF0.9801541724869367
aF0.98136478865952714
aF0.98245123907082621
aF0.98353768948212528
aF0.98457240415955305
aF0.98548295307568934
aF0.98637280769827718
aF0.98724196802731645
aF0.98809043406280717
aF0.9889285529515236
aF0.98970458895959434
aF0.99041854208701952
aF0.99111180092089601
aF0.99173262972735265
aF0.99232241709348645
aF0.99285012157897456
aF0.99337782606446268
aF0.99387448910962806
aF0.99436080500801904
aF0.99471260799834449
aF0.99506441098866982
aF0.99539551968544671
aF0.99570593408867503
aF0.99601634849190335
aF0.99631641574835739
aF0.99661648300481143
aF0.9968958559677169
aF0.99717522893062238
aF0.9974339075999793
aF0.99769258626933621
aF0.99795126493869313
aF0.9981789021677272
aF0.99840653939676138
aF0.99863417662579546
aF0.99885146670805525
aF0.99906875679031504
aF0.99927569972580066
aF0.99947229551451189
aF0.99965854415644884
aF0.99983444565161161
aF1
asS'total_authors'
p125
I474
sS'authors_before_eighty'
p126
F0.8078327901081277
sS'authors_sig_changes'
p127
Nsb.