(i__main__
Mip
p1
(dp2
S'users'
p3
(dp4
VZundark
p5
I1
ssS'decay'
p6
F0.01
sS'current_flow_betweeness'
p7
NsS'minIncrement'
p8
F0.10000000000000001
sS'currentVersion'
p9
(iversion
Version
p10
(dp11
S'date'
p12
cdatetime
datetime
p13
(S'\x07\xd1\x0b\x0c\n,\x1f\x00\x00\x00'
tRp14
sS'text'
p15
VItaly (Italia) is a republic in the south of Europe.\u000aIt is a boot-shaped peninsula together with two large islands in the Mediterranean Sea: Sicily and Sardinia.\u000aIt is one of the countries that uses the Euro currency.\u000aThe capital is Rome (Roma), but the economic capital is Milan (Milano) in the north.\u000aItaly has won the Football WorldCup three (3) times: 1934, 1938 and 1982. Some of world's best Football teams come from Italy. The latter include Milan AC, Inter Milano FC, AS Roma, Lazio (also from Rome), Juventus (from Torino) and Fiorentina (from Florence).\u000aItaly is also well-known for its food (pizza, pasta, etc.) and the leaning tower of Pisa.\u000aPisa is a beautiful small town in Tuscany, and the tower wasn't built to be leaning, but began leaning soon after they started construction around the thirteenth century.\u000aItaly became a nation-state belatedly - in 1861 when the city-states of the peninsula and Sicily were united under King Victor EMMANUEL. The Fascist dictatorship of Benito MUSSOLINI that took over after World War I led to a disastrous alliance with Nazi Germany and Italian defeat in World War II. Revival followed. Italy was a charter member of NATO and the European Economic Community (EEC) and joined the growing political and economic unification of Western Europe, including the introduction of the euro in 1999. Persistent problems include illegal immigration, the ravages of organized crime, corruption, high unemployment, and the low incomes and technical standards of southern Italy compared with the more prosperous north.\u000aItaly has a diversified industrial economy with approximately the same total and per capita output as France and the United Kingdom. This capitalistic economy remains divided into a developed industrial north, dominated by private companies, and a less developed agricultural south, with more than 20% unemployment. Most raw materials needed by industry and more than 75% of energy requirements are imported. For several years Italy has adopted budgets compliant with the requirements of the European Monetary Union (EMU); representatives of government, labor, and employers also agreed to an update of the 1993 "social pact," which has been widely credited with having brought Italy's inflation into conformity with EMU requirements. Italy must work to stimulate employment, promote wage flexibility, hold down the growth in pensions, and tackle the informal economy. Growth was 1.3% in 1999 and should edge up to 2.6% in 2000, led by investment and exports.\u000aFrom the CIA World Factbook 2000 and the U.S. Department of State website. Not Wikified.\u000a* History\u000a* Geography\u000a* People\u000a* Government\u000a* Economy\u000a* Communications\u000a* Transportation\u000a* Military\u000a* Transnational Issues\u000a
p16
sS'paragraphs'
p17
(lp18
(iversion
Paragraph
p19
(dp20
g15
VItaly (Italia) is a republic in the south of Europe.
p21
sS'changed'
p22
I00
sS'nextindex'
p23
NsS'lastindex'
p24
Nsba(iversion
Paragraph
p25
(dp26
g15
VIt is a boot-shaped peninsula together with two large islands in the Mediterranean Sea: Sicily and Sardinia.
p27
sg22
I00
sg23
Nsg24
Nsba(iversion
Paragraph
p28
(dp29
g15
VIt is one of the countries that uses the Euro currency.
p30
sg22
I00
sg23
Nsg24
Nsba(iversion
Paragraph
p31
(dp32
g15
VThe capital is Rome (Roma), but the economic capital is Milan (Milano) in the north.
p33
sg22
I00
sg23
Nsg24
Nsba(iversion
Paragraph
p34
(dp35
g15
VItaly has won the Football WorldCup three (3) times: 1934, 1938 and 1982. Some of world's best Football teams come from Italy. The latter include Milan AC, Inter Milano FC, AS Roma, Lazio (also from Rome), Juventus (from Torino) and Fiorentina (from Florence).
p36
sg22
I00
sg23
Nsg24
Nsba(iversion
Paragraph
p37
(dp38
g15
VItaly is also well-known for its food (pizza, pasta, etc.) and the leaning tower of Pisa.
p39
sg22
I00
sg23
Nsg24
Nsba(iversion
Paragraph
p40
(dp41
g15
VPisa is a beautiful small town in Tuscany, and the tower wasn't built to be leaning, but began leaning soon after they started construction around the thirteenth century.
p42
sg22
I00
sg23
Nsg24
Nsba(iversion
Paragraph
p43
(dp44
g15
VItaly became a nation-state belatedly - in 1861 when the city-states of the peninsula and Sicily were united under King Victor EMMANUEL. The Fascist dictatorship of Benito MUSSOLINI that took over after World War I led to a disastrous alliance with Nazi Germany and Italian defeat in World War II. Revival followed. Italy was a charter member of NATO and the European Economic Community (EEC) and joined the growing political and economic unification of Western Europe, including the introduction of the euro in 1999. Persistent problems include illegal immigration, the ravages of organized crime, corruption, high unemployment, and the low incomes and technical standards of southern Italy compared with the more prosperous north.
p45
sg22
I00
sg23
Nsg24
Nsba(iversion
Paragraph
p46
(dp47
g15
VItaly has a diversified industrial economy with approximately the same total and per capita output as France and the United Kingdom. This capitalistic economy remains divided into a developed industrial north, dominated by private companies, and a less developed agricultural south, with more than 20% unemployment. Most raw materials needed by industry and more than 75% of energy requirements are imported. For several years Italy has adopted budgets compliant with the requirements of the European Monetary Union (EMU); representatives of government, labor, and employers also agreed to an update of the 1993 "social pact," which has been widely credited with having brought Italy's inflation into conformity with EMU requirements. Italy must work to stimulate employment, promote wage flexibility, hold down the growth in pensions, and tackle the informal economy. Growth was 1.3% in 1999 and should edge up to 2.6% in 2000, led by investment and exports.
p48
sg22
I00
sg23
Nsg24
Nsba(iversion
Paragraph
p49
(dp50
g15
VFrom the CIA World Factbook 2000 and the U.S. Department of State website. Not Wikified.* History* Geography* People* Government* Economy* Communications* Transportation* Military* Transnational Issues
p51
sg22
I00
sg23
Nsg24
NsbasS'author'
p52
g5
sbsS'pars'
p53
(lp54
(dp55
I0
I2
sI1
I3
sI2
I4
sI3
I5
sI4
I6
sI5
I7
sI6
I8
sI7
I9
sI8
I10
sI9
I11
sasS'nodeIdsToUsers'
p56
(dp57
I1
g5
ssS'sigIncrement'
p58
I1
sS'lastID'
p59
I11
sS'mip'
p60
ccopy_reg
_reconstructor
p61
(cnetworkx.classes.graph
Graph
p62
c__builtin__
object
p63
NtRp64
(dp65
S'node'
p66
(dp67
I1
(dp68
S'type'
p69
S'user'
p70
ssI2
(dp71
S'deleted'
p72
I0
sI0
I0
sg69
S'par'
p73
ssI3
(dp74
g72
I0
sI0
I1
sg69
g73
ssI4
(dp75
g72
I0
sI0
I2
sg69
g73
ssI5
(dp76
g72
I0
sI0
I3
sg69
g73
ssI6
(dp77
g72
I0
sI0
I4
sg69
g73
ssI7
(dp78
g72
I0
sI0
I5
sg69
g73
ssI8
(dp79
g72
I0
sI0
I6
sg69
g73
ssI9
(dp80
g72
I0
sI0
I7
sg69
g73
ssI10
(dp81
g72
I0
sI0
I8
sg69
g73
ssI11
(dp82
g72
I0
sI0
I9
sg69
g73
sssS'graph'
p83
(dp84
sS'edge'
p85
(dp86
I1
(dp87
I2
(dp88
S'updated'
p89
I1
sg69
S'u-p'
p90
sS'weight'
p91
I1
ssI3
(dp92
g89
I1
sg69
g90
sg91
I1
ssI4
(dp93
g89
I1
sg69
g90
sg91
I1
ssI5
(dp94
g89
I1
sg69
g90
sg91
I1
ssI6
(dp95
g89
I1
sg69
g90
sg91
I1
ssI7
(dp96
g89
I1
sg69
g90
sg91
I1
ssI8
(dp97
g89
I1
sg69
g90
sg91
I1
ssI9
(dp98
g89
I1
sg69
g90
sg91
I1
ssI10
(dp99
g89
I1
sg69
g90
sg91
I1
ssI11
(dp100
g89
I1
sg69
g90
sg91
I1
sssI2
(dp101
I1
g88
sI3
(dp102
g89
I1
sg69
S'p-p'
p103
sg91
I1
ssI4
(dp104
g89
I1
sg69
g103
sg91
I1
ssI5
(dp105
g89
I1
sg69
g103
sg91
I1
ssI6
(dp106
g89
I1
sg69
g103
sg91
I1
ssI7
(dp107
g89
I1
sg69
g103
sg91
I1
ssI8
(dp108
g89
I1
sg69
g103
sg91
I1
ssI9
(dp109
g89
I1
sg69
g103
sg91
I1
ssI10
(dp110
g89
I1
sg69
g103
sg91
I1
ssI11
(dp111
g89
I1
sg69
g103
sg91
I1
sssI3
(dp112
I1
g92
sI2
g102
sI4
(dp113
g89
I1
sg69
g103
sg91
I1
ssI5
(dp114
g89
I1
sg69
g103
sg91
I1
ssI6
(dp115
g89
I1
sg69
g103
sg91
I1
ssI7
(dp116
g89
I1
sg69
g103
sg91
I1
ssI8
(dp117
g89
I1
sg69
g103
sg91
I1
ssI9
(dp118
g89
I1
sg69
g103
sg91
I1
ssI10
(dp119
g89
I1
sg69
g103
sg91
I1
ssI11
(dp120
g89
I1
sg69
g103
sg91
I1
sssI4
(dp121
I1
g93
sI2
g104
sI3
g113
sI5
(dp122
g89
I1
sg69
g103
sg91
I1
ssI6
(dp123
g89
I1
sg69
g103
sg91
I1
ssI7
(dp124
g89
I1
sg69
g103
sg91
I1
ssI8
(dp125
g89
I1
sg69
g103
sg91
I1
ssI9
(dp126
g89
I1
sg69
g103
sg91
I1
ssI10
(dp127
g89
I1
sg69
g103
sg91
I1
ssI11
(dp128
g89
I1
sg69
g103
sg91
I1
sssI5
(dp129
I1
g94
sI2
g105
sI3
g114
sI4
g122
sI6
(dp130
g89
I1
sg69
g103
sg91
I1
ssI7
(dp131
g89
I1
sg69
g103
sg91
I1
ssI8
(dp132
g89
I1
sg69
g103
sg91
I1
ssI9
(dp133
g89
I1
sg69
g103
sg91
I1
ssI10
(dp134
g89
I1
sg69
g103
sg91
I1
ssI11
(dp135
g89
I1
sg69
g103
sg91
I1
sssI6
(dp136
I1
g95
sI2
g106
sI3
g115
sI4
g123
sI5
g130
sI7
(dp137
g89
I1
sg69
g103
sg91
I1
ssI8
(dp138
g89
I1
sg69
g103
sg91
I1
ssI9
(dp139
g89
I1
sg69
g103
sg91
I1
ssI10
(dp140
g89
I1
sg69
g103
sg91
I1
ssI11
(dp141
g89
I1
sg69
g103
sg91
I1
sssI7
(dp142
I1
g96
sI2
g107
sI3
g116
sI4
g124
sI5
g131
sI6
g137
sI8
(dp143
g89
I1
sg69
g103
sg91
I1
ssI9
(dp144
g89
I1
sg69
g103
sg91
I1
ssI10
(dp145
g89
I1
sg69
g103
sg91
I1
ssI11
(dp146
g89
I1
sg69
g103
sg91
I1
sssI8
(dp147
I1
g97
sI2
g108
sI3
g117
sI4
g125
sI5
g132
sI6
g138
sI7
g143
sI9
(dp148
g89
I1
sg69
g103
sg91
I1
ssI10
(dp149
g89
I1
sg69
g103
sg91
I1
ssI11
(dp150
g89
I1
sg69
g103
sg91
I1
sssI9
(dp151
I1
g98
sI2
g109
sI3
g118
sI4
g126
sI5
g133
sI6
g139
sI7
g144
sI8
g148
sI10
(dp152
g89
I1
sg69
g103
sg91
I1
ssI11
(dp153
g89
I1
sg69
g103
sg91
I1
sssI10
(dp154
I1
g99
sI2
g110
sI3
g119
sI4
g127
sI5
g134
sI6
g140
sI7
g145
sI8
g149
sI9
g152
sI11
(dp155
g89
I1
sg69
g103
sg91
I1
sssI11
(dp156
I1
g100
sI2
g111
sI3
g120
sI4
g128
sI5
g135
sI6
g141
sI7
g146
sI8
g150
sI9
g153
sI10
g155
sssS'adj'
p157
g86
sbsS'latestVersion'
p158
I0
sS'log'
p159
(lp160
(i__main__
Session
p161
(dp162
g70
g5
sS'actions'
p163
(lp164
(i__main__
Action
p165
(dp166
S'changeExtent'
p167
I1
sS'ao'
p168
I2
sS'mipNodeID'
p169
I-1
sS'weightInc'
p170
I1
sS'desc'
p171
S'Italy (Italia) is a republic in the south of Europe.'
p172
sS'actType'
p173
S'sigEdit'
p174
sg70
g5
sba(i__main__
Action
p175
(dp176
g167
I1
sg168
I3
sg169
I-1
sg170
I1
sg171
S'It is a boot-shaped peninsula together with two large islands in the Mediterranean Sea: Sicily and Sardinia.'
p177
sg173
g174
sg70
g5
sba(i__main__
Action
p178
(dp179
g167
I1
sg168
I4
sg169
I-1
sg170
I1
sg171
S'It is one of the countries that uses the Euro currency.'
p180
sg173
g174
sg70
g5
sba(i__main__
Action
p181
(dp182
g167
I1
sg168
I5
sg169
I-1
sg170
I1
sg171
S'The capital is Rome (Roma), but the economic capital is Milan (Milano) in the north.'
p183
sg173
g174
sg70
g5
sba(i__main__
Action
p184
(dp185
g167
I1
sg168
I6
sg169
I-1
sg170
I1
sg171
S"Italy has won the Football WorldCup three (3) times: 1934, 1938 and 1982. Some of world's best Football teams come from Italy. The latter include Milan AC, Inter Milano FC, AS Roma, Lazio (also from Rome), Juventus (from Torino) and Fiorentina (from Florence)."
p186
sg173
g174
sg70
g5
sba(i__main__
Action
p187
(dp188
g167
I1
sg168
I7
sg169
I-1
sg170
I1
sg171
S'Italy is also well-known for its food (pizza, pasta, etc.) and the leaning tower of Pisa.'
p189
sg173
g174
sg70
g5
sba(i__main__
Action
p190
(dp191
g167
I1
sg168
I8
sg169
I-1
sg170
I1
sg171
S"Pisa is a beautiful small town in Tuscany, and the tower wasn't built to be leaning, but began leaning soon after they started construction around the thirteenth century."
p192
sg173
g174
sg70
g5
sba(i__main__
Action
p193
(dp194
g167
I1
sg168
I9
sg169
I-1
sg170
I1
sg171
S'Italy became a nation-state belatedly - in 1861 when the city-states of the peninsula and Sicily were united under King Victor EMMANUEL. The Fascist dictatorship of Benito MUSSOLINI that took over after World War I led to a disastrous alliance with Nazi Germany and Italian defeat in World War II. Revival followed. Italy was a charter member of NATO and the European Economic Community (EEC) and joined the growing political and economic unification of Western Europe, including the introduction of the euro in 1999. Persistent problems include illegal immigration, the ravages of organized crime, corruption, high unemployment, and the low incomes and technical standards of southern Italy compared with the more prosperous north.'
p195
sg173
g174
sg70
g5
sba(i__main__
Action
p196
(dp197
g167
I1
sg168
I10
sg169
I-1
sg170
I1
sg171
S'Italy has a diversified industrial economy with approximately the same total and per capita output as France and the United Kingdom. This capitalistic economy remains divided into a developed industrial north, dominated by private companies, and a less developed agricultural south, with more than 20% unemployment. Most raw materials needed by industry and more than 75% of energy requirements are imported. For several years Italy has adopted budgets compliant with the requirements of the European Monetary Union (EMU); representatives of government, labor, and employers also agreed to an update of the 1993 "social pact," which has been widely credited with having brought Italy\'s inflation into conformity with EMU requirements. Italy must work to stimulate employment, promote wage flexibility, hold down the growth in pensions, and tackle the informal economy. Growth was 1.3% in 1999 and should edge up to 2.6% in 2000, led by investment and exports.'
p198
sg173
g174
sg70
g5
sba(i__main__
Action
p199
(dp200
g167
I1
sg168
I11
sg169
I-1
sg170
I1
sg171
S'From the CIA World Factbook 2000 and the U.S. Department of State website. Not Wikified.* History* Geography* People* Government* Economy* Communications* Transportation* Military* Transnational Issues'
p201
sg173
g174
sg70
g5
sbasS'time'
p202
I0
sbasb.