(i__main__
Mip
p1
(dp2
S'users'
p3
(dp4
VConversion script
p5
I5
sV205.180.71.xxx
p6
I1
sVOlivier
p7
I11
sVVicki Rosenzweig
p8
I4
ssS'decay'
p9
F0.01
sS'minIncrement'
p10
F0.10000000000000001
sS'currentVersion'
p11
(iversion
Version
p12
(dp13
S'date'
p14
cdatetime
datetime
p15
(S'\x07\xd2\t\x03\x0b0+\x00\x00\x00'
tRp16
sS'text'
p17
VYale University, one of eight Ivy League universities, was founded in Old Saybrook, Connecticut, U.S.A. in 1701 by Congregationalist ministers. It moved to New Haven, Connecticut in 1716. The Yale campus is in downtown New Haven, and the university is one of the city's largest employers, which sometimes leads to tension between students and local residents.\u000aThe college's original name was the "Collegiate School"; it was renamed "Yale" after an early benefactor, Elihu Yale.\u000aIn the early 20th century, Yale merged with the Sheffield Scientific School.\u000aIn addition to a respected undergraduate college, Yale is noted for its law school, medical school, and school of music. The Divinity School was founded in the early 19th century by Congregationalists who felt that the Harvard University divinity school had become too liberal.\u000aYale's library is among the largest in North America. The Beinecke Rare Book Library is housed in a marble building designed by Isamu Noguchi.\u000aOther resources include the Peabody Museum of Natural History and a museum of British art.\u000aYale's sports teams are called the Bulldogs.  They participate in the NCAA's Division I-A.\u000a----\u000aLinks:\u000a* Yale's website is found at http://www.yale.edu
p18
sS'paragraphs'
p19
(lp20
(iversion
Paragraph
p21
(dp22
g17
VYale University, one of eight Ivy League universities, was founded in Old Saybrook, Connecticut, U.S.A. in 1701 by Congregationalist ministers. It moved to New Haven, Connecticut in 1716. The Yale campus is in downtown New Haven, and the university is one of the city's largest employers, which sometimes leads to tension between students and local residents.
p23
sS'changed'
p24
I00
sS'nextindex'
p25
NsS'lastindex'
p26
Nsba(iversion
Paragraph
p27
(dp28
g17
VThe college's original name was the "Collegiate School"; it was renamed "Yale" after an early benefactor, Elihu Yale.
p29
sg24
I00
sg25
Nsg26
Nsba(iversion
Paragraph
p30
(dp31
g17
VIn the early 20th century, Yale merged with the Sheffield Scientific School.
p32
sg24
I00
sg25
Nsg26
Nsba(iversion
Paragraph
p33
(dp34
g17
VIn addition to a respected undergraduate college, Yale is noted for its law school, medical school, and school of music. The Divinity School was founded in the early 19th century by Congregationalists who felt that the Harvard University divinity school had become too liberal.
p35
sg24
I00
sg25
Nsg26
Nsba(iversion
Paragraph
p36
(dp37
g17
VYale's library is among the largest in North America. The Beinecke Rare Book Library is housed in a marble building designed by Isamu Noguchi.
p38
sg24
I00
sg25
Nsg26
Nsba(iversion
Paragraph
p39
(dp40
g17
VOther resources include the Peabody Museum of Natural History and a museum of British art.
p41
sg24
I00
sg25
Nsg26
Nsba(iversion
Paragraph
p42
(dp43
g17
VYale's sports teams are called the Bulldogs.  They participate in the NCAA's Division I-A.
p44
sg24
I00
sg25
Nsg26
Nsba(iversion
Paragraph
p45
(dp46
g17
V----Links:* Yale's website is found at http://www.yale.edu
p47
sg24
I00
sg25
Nsg26
NsbasS'author'
p48
g7
sbsS'pars'
p49
(lp50
(dp51
I0
I2
sI1
I3
sa(dp52
I0
I2
sI1
I3
sa(dp53
I0
I2
sI1
I3
sa(dp54
I0
I2
sI1
I6
sI2
I7
sI3
I8
sI4
I9
sI5
I10
sI6
I3
sa(dp55
I0
I2
sI1
I6
sI2
I7
sI3
I8
sI4
I9
sI5
I10
sI6
I12
sI7
I3
sasS'nodeIdsToUsers'
p56
(dp57
I1
g6
sI11
g7
sI4
g8
sI5
g5
ssS'sigIncrement'
p58
I1
sS'lastID'
p59
I12
sS'mip'
p60
ccopy_reg
_reconstructor
p61
(cnetworkx.classes.graph
Graph
p62
c__builtin__
object
p63
NtRp64
(dp65
S'node'
p66
(dp67
I1
(dp68
S'type'
p69
S'user'
p70
ssI2
(dp71
I0
I0
sI1
I0
sI2
I0
sI3
I0
sI4
I0
sS'deleted'
p72
I0
sg69
S'par'
p73
ssI3
(dp74
I0
I1
sI1
I1
sI2
I1
sI3
I6
sI4
I7
sg72
I0
sg69
g73
ssI4
(dp75
g69
g70
ssI5
(dp76
g69
g70
ssI6
(dp77
g72
I0
sI4
I1
sI3
I1
sg69
g73
ssI7
(dp78
g72
I0
sI4
I2
sI3
I2
sg69
g73
ssI8
(dp79
g72
I0
sI4
I3
sI3
I3
sg69
g73
ssI9
(dp80
g72
I0
sI4
I4
sI3
I4
sg69
g73
ssI10
(dp81
g72
I0
sI4
I5
sI3
I5
sg69
g73
ssI11
(dp82
g69
g70
ssI12
(dp83
g72
I0
sI4
I6
sg69
g73
sssS'graph'
p84
(dp85
sS'edge'
p86
(dp87
I1
(dp88
I2
(dp89
S'updated'
p90
I0
sg69
S'u-p'
p91
sS'weight'
p92
I1
ssI3
(dp93
g90
I0
sg69
g91
sg92
I1
sssI2
(dp94
I1
g89
sI3
(dp95
g90
I0
sg69
S'p-p'
p96
sg92
F1.1800000000000002
ssI4
(dp97
g90
I0
sg69
S'u-p'
p98
sg92
F1.1000000000000001
ssI5
(dp99
g90
I0
sg69
g98
sg92
F0.10000000000000001
ssI6
(dp100
g90
I0
sg69
S'p-p'
p101
sg92
F0.98999999999999999
ssI7
(dp102
g90
I0
sg69
g101
sg92
F0.98999999999999999
ssI8
(dp103
g90
I0
sg69
g101
sg92
F0.98999999999999999
ssI9
(dp104
g90
I0
sg69
g101
sg92
F0.98999999999999999
ssI10
(dp105
g90
I0
sg69
g101
sg92
F0.98999999999999999
ssI11
(dp106
g90
I1
sg69
g98
sg92
F0.10000000000000001
ssI12
(dp107
g90
I1
sg69
g101
sg92
F0.10000000000000001
sssI3
(dp108
I1
g93
sI2
g95
sI4
(dp109
g90
I0
sg69
g98
sg92
F1.1000000000000001
ssI5
(dp110
g90
I0
sg69
g98
sg92
F0.10000000000000001
ssI6
(dp111
g90
I0
sg69
g101
sg92
F0.090000000000000011
ssI7
(dp112
g90
I0
sg69
g101
sg92
F0.090000000000000011
ssI8
(dp113
g90
I0
sg69
g101
sg92
F0.090000000000000011
ssI9
(dp114
g90
I0
sg69
g101
sg92
F0.090000000000000011
ssI10
(dp115
g90
I0
sg69
g101
sg92
F0.090000000000000011
ssI11
(dp116
g90
I1
sg69
g98
sg92
F0.10000000000000001
ssI12
(dp117
g90
I1
sg69
g101
sg92
F0.10000000000000001
sssI4
(dp118
I2
g97
sI3
g109
sI6
(dp119
g90
I0
sg69
g98
sg92
I1
ssI7
(dp120
g90
I0
sg69
g98
sg92
I1
ssI8
(dp121
g90
I0
sg69
g98
sg92
I1
ssI9
(dp122
g90
I0
sg69
g98
sg92
I1
ssI10
(dp123
g90
I0
sg69
g98
sg92
I1
sssI5
(dp124
I2
g99
sI3
g110
ssI6
(dp125
I2
g100
sI3
g111
sI4
g119
sI7
(dp126
g90
I0
sg69
g101
sg92
F0.98999999999999999
ssI8
(dp127
g90
I0
sg69
g101
sg92
F0.98999999999999999
ssI9
(dp128
g90
I0
sg69
g101
sg92
F0.98999999999999999
ssI10
(dp129
g90
I0
sg69
g101
sg92
F0.98999999999999999
sssI7
(dp130
I2
g102
sI3
g112
sI4
g120
sI6
g126
sI8
(dp131
g90
I0
sg69
g101
sg92
F0.98999999999999999
ssI9
(dp132
g90
I0
sg69
g101
sg92
F0.98999999999999999
ssI10
(dp133
g90
I0
sg69
g101
sg92
F0.98999999999999999
sssI8
(dp134
I2
g103
sI3
g113
sI4
g121
sI6
g127
sI7
g131
sI9
(dp135
g90
I0
sg69
g101
sg92
F0.98999999999999999
ssI10
(dp136
g90
I0
sg69
g101
sg92
F0.98999999999999999
ssI11
(dp137
g90
I1
sg69
g98
sg92
F0.10000000000000001
ssI12
(dp138
g90
I1
sg69
g101
sg92
F0.10000000000000001
sssI9
(dp139
I2
g104
sI3
g114
sI4
g122
sI6
g128
sI7
g132
sI8
g135
sI10
(dp140
g90
I0
sg69
g101
sg92
F0.98999999999999999
ssI11
(dp141
g90
I1
sg69
g98
sg92
F0.10000000000000001
ssI12
(dp142
g90
I1
sg69
g101
sg92
F0.10000000000000001
sssI10
(dp143
I2
g105
sI3
g115
sI4
g123
sI6
g129
sI7
g133
sI8
g136
sI9
g140
sI11
(dp144
g90
I1
sg69
g98
sg92
F0.10000000000000001
ssI12
(dp145
g90
I1
sg69
g101
sg92
F0.10000000000000001
sssI11
(dp146
I2
g106
sI3
g116
sI8
g137
sI9
g141
sI10
g144
sI12
(dp147
g90
I1
sg69
g98
sg92
I1
sssI12
(dp148
I2
g107
sI3
g117
sI8
g138
sI9
g142
sI10
g145
sI11
g147
sssS'adj'
p149
g87
sbsS'latestVersion'
p150
I4
sS'log'
p151
(lp152
(i__main__
Session
p153
(dp154
g70
g6
sS'actions'
p155
(lp156
(i__main__
Action
p157
(dp158
S'ao'
p159
I2
sS'mipNodeID'
p160
I-1
sS'weightInc'
p161
I1
sS'desc'
p162
S'Yale University founded in Old Saybrook, Connecticut, USA in 1701 by Congregationalist ministers. Moved to New Haven, Connecticut in 1716.'
p163
sS'actType'
p164
S'sigEdit'
p165
sg70
g6
sba(i__main__
Action
p166
(dp167
g159
I3
sg160
I-1
sg161
I1
sg162
S'----website is http://www.yale.edu'
p168
sg164
g165
sg70
g6
sbasS'time'
p169
I0
sba(i__main__
Session
p170
(dp171
g70
g8
sg155
(lp172
(i__main__
Action
p173
(dp174
g159
I2
sg160
I-1
sg161
F0.10000000000000001
sg162
S'Yale University, one of eight Ivy League universities, was founded in Old Saybrook, Connecticut, U.S.A. in 1701 by Congregationalist ministers. It moved to New Haven, Connecticut in 1716.'
p175
sg164
S'smallEdit'
p176
sg70
g8
sba(i__main__
Action
p177
(dp178
g159
I3
sg160
I-1
sg161
I1
sg162
S"----Links:* Yale's website is found at http://www.yale.edu"
p179
sg164
g165
sg70
g8
sbasg169
I1
sba(i__main__
Session
p180
(dp181
g70
g5
sg155
(lp182
(i__main__
Action
p183
(dp184
g159
I2
sg160
I-1
sg161
F0.10000000000000001
sg162
S'Yale University, one of eight Ivy League universities, was founded in Old Saybrook, Connecticut, U.S.A. in 1701 by Congregationalist ministers. It moved to New Haven, Connecticut in 1716.'
p185
sg164
g176
sg70
g5
sba(i__main__
Action
p186
(dp187
g159
I3
sg160
I-1
sg161
F0.10000000000000001
sg162
S"See also:*Elihu Yale----Links:* Yale's website is found at http://www.yale.edu"
p188
sg164
g176
sg70
g5
sbasg169
I2
sba(i__main__
Session
p189
(dp190
g70
VVicki Rosenzweig
p191
sg155
(lp192
(i__main__
Action
p193
(dp194
g159
I2
sg160
I-1
sg161
I1
sg162
S"Yale University, one of eight Ivy League universities, was founded in Old Saybrook, Connecticut, U.S.A. in 1701 by Congregationalist ministers. It moved to New Haven, Connecticut in 1716. The Yale campus is in downtown New Haven, and the university is one of the city's largest employers, which sometimes leads to tension between students and local residents."
p195
sg164
g165
sg70
g191
sba(i__main__
Action
p196
(dp197
g159
I6
sg160
I-1
sg161
I1
sg162
S'The college\'s original name was the "Collegiate School"; it was renamed "Yale" after an early benefactor, Elihu Yale.'
p198
sg164
S'added'
p199
sg70
g191
sba(i__main__
Action
p200
(dp201
g159
I7
sg160
I-1
sg161
I1
sg162
S'In the early 20th century, Yale merged with the Sheffield Scientific School.'
p202
sg164
g199
sg70
g191
sba(i__main__
Action
p203
(dp204
g159
I8
sg160
I-1
sg161
I1
sg162
S'In addition to a respected undergraduate college, Yale is noted for its law school, medical school, and school of music. The Divinity School was founded in the early 19th century by Congregationalists who felt that the Harvard University divinity school had become too liberal.'
p205
sg164
g199
sg70
g191
sba(i__main__
Action
p206
(dp207
g159
I9
sg160
I-1
sg161
I1
sg162
S"Yale's library is among the largest in North America. The Beinecke Rare Book Library is housed in a marble building designed by Isamu Noguchi."
p208
sg164
g199
sg70
g191
sba(i__main__
Action
p209
(dp210
g159
I10
sg160
I-1
sg161
I1
sg162
S'Other resources include the Peabody Museum of Natural History and a museum of British art.'
p211
sg164
g199
sg70
g191
sba(i__main__
Action
p212
(dp213
g159
I3
sg160
I-1
sg161
F0.10000000000000001
sg162
S"----Links:* Yale's website is found at http://www.yale.edu"
p214
sg164
g176
sg70
g191
sbasg169
I3
sba(i__main__
Session
p215
(dp216
g70
g7
sg155
(lp217
(i__main__
Action
p218
(dp219
g159
I2
sg160
I-1
sg161
F0.10000000000000001
sg162
S"Yale University, one of eight Ivy League universities, was founded in Old Saybrook, Connecticut, U.S.A. in 1701 by Congregationalist ministers. It moved to New Haven, Connecticut in 1716. The Yale campus is in downtown New Haven, and the university is one of the city's largest employers, which sometimes leads to tension between students and local residents."
p220
sg164
g176
sg70
g7
sba(i__main__
Action
p221
(dp222
g159
I8
sg160
I-1
sg161
F0.10000000000000001
sg162
S'In addition to a respected undergraduate college, Yale is noted for its law school, medical school, and school of music. The Divinity School was founded in the early 19th century by Congregationalists who felt that the Harvard University divinity school had become too liberal.'
p223
sg164
g176
sg70
g7
sba(i__main__
Action
p224
(dp225
g159
I9
sg160
I-1
sg161
F0.10000000000000001
sg162
S"Yale's library is among the largest in North America. The Beinecke Rare Book Library is housed in a marble building designed by Isamu Noguchi."
p226
sg164
g176
sg70
g7
sba(i__main__
Action
p227
(dp228
g159
I10
sg160
I-1
sg161
F0.10000000000000001
sg162
S'Other resources include the Peabody Museum of Natural History and a museum of British art.'
p229
sg164
g176
sg70
g7
sba(i__main__
Action
p230
(dp231
g159
I12
sg160
I-1
sg161
I1
sg162
S"Yale's sports teams are called the Bulldogs.  They participate in the NCAA's Division I-A."
p232
sg164
g199
sg70
g7
sba(i__main__
Action
p233
(dp234
g159
I3
sg160
I-1
sg161
F0.10000000000000001
sg162
S"----Links:* Yale's website is found at http://www.yale.edu"
p235
sg164
g176
sg70
g7
sbasg169
I4
sbasb.