(i__main__
Mip
p1
(dp2
S'users'
p3
(dp4
VConversion script
p5
I5
sV205.180.71.xxx
p6
I1
sVVicki Rosenzweig
p7
I4
ssS'decay'
p8
F0.01
sS'minIncrement'
p9
F0.10000000000000001
sS'currentVersion'
p10
(iversion
Version
p11
(dp12
S'date'
p13
cdatetime
datetime
p14
(S'\x07\xd2\x07\x06\x15\t\x1b\x00\x00\x00'
tRp15
sS'text'
p16
VYale University, one of eight Ivy League universities, was founded in Old Saybrook, Connecticut, U.S.A. in 1701 by Congregationalist ministers. It moved to New Haven, Connecticut in 1716. The Yale campus is in downtown New Haven, and the university is one of the city's largest employers, which sometimes leads to tension between students and local residents.\u000aThe college's original name was the "Collegiate School"; it was renamed "Yale" after an early benefactor, Elihu Yale.\u000aIn the early 20th century, Yale merged with the Sheffield Scientific School.\u000aIn addition to a respected undergraduate college, Yale is noted for its law school, medical school, and school of music. The Divinity School was founded in the early 19th century by Congregationalists who felt that the Harvard University divinity school had become too liberal.\u000aYale's library is among the largest in North America. The Beinecke Rare Book Library is housed in a marble building designed by Isamu Noguchi.\u000aOther resources include the Peabody Museum of Natural History and a museum of British art.\u000a----\u000aLinks:\u000a* Yale's website is found at http://www.yale.edu\u000a
p17
sS'paragraphs'
p18
(lp19
(iversion
Paragraph
p20
(dp21
g16
VYale University, one of eight Ivy League universities, was founded in Old Saybrook, Connecticut, U.S.A. in 1701 by Congregationalist ministers. It moved to New Haven, Connecticut in 1716. The Yale campus is in downtown New Haven, and the university is one of the city's largest employers, which sometimes leads to tension between students and local residents.
p22
sS'changed'
p23
I00
sS'nextindex'
p24
NsS'lastindex'
p25
Nsba(iversion
Paragraph
p26
(dp27
g16
VThe college's original name was the "Collegiate School"; it was renamed "Yale" after an early benefactor, Elihu Yale.
p28
sg23
I00
sg24
Nsg25
Nsba(iversion
Paragraph
p29
(dp30
g16
VIn the early 20th century, Yale merged with the Sheffield Scientific School.
p31
sg23
I00
sg24
Nsg25
Nsba(iversion
Paragraph
p32
(dp33
g16
VIn addition to a respected undergraduate college, Yale is noted for its law school, medical school, and school of music. The Divinity School was founded in the early 19th century by Congregationalists who felt that the Harvard University divinity school had become too liberal.
p34
sg23
I00
sg24
Nsg25
Nsba(iversion
Paragraph
p35
(dp36
g16
VYale's library is among the largest in North America. The Beinecke Rare Book Library is housed in a marble building designed by Isamu Noguchi.
p37
sg23
I00
sg24
Nsg25
Nsba(iversion
Paragraph
p38
(dp39
g16
VOther resources include the Peabody Museum of Natural History and a museum of British art.
p40
sg23
I00
sg24
Nsg25
Nsba(iversion
Paragraph
p41
(dp42
g16
V----Links:* Yale's website is found at http://www.yale.edu
p43
sg23
I00
sg24
Nsg25
NsbasS'author'
p44
VVicki Rosenzweig
p45
sbsS'pars'
p46
(lp47
(dp48
I0
I2
sI1
I3
sa(dp49
I0
I2
sI1
I3
sa(dp50
I0
I2
sI1
I3
sa(dp51
I0
I2
sI1
I6
sI2
I7
sI3
I8
sI4
I9
sI5
I10
sI6
I3
sasS'nodeIdsToUsers'
p52
(dp53
I1
g6
sI4
g7
sI5
g5
ssS'sigIncrement'
p54
I1
sS'lastID'
p55
I10
sS'mip'
p56
ccopy_reg
_reconstructor
p57
(cnetworkx.classes.graph
Graph
p58
c__builtin__
object
p59
NtRp60
(dp61
S'node'
p62
(dp63
I1
(dp64
S'type'
p65
S'user'
p66
ssI2
(dp67
I0
I0
sI1
I0
sI2
I0
sI3
I0
sS'deleted'
p68
I0
sg65
S'par'
p69
ssI3
(dp70
I0
I1
sI1
I1
sI2
I1
sI3
I6
sg68
I0
sg65
g69
ssI4
(dp71
g65
g66
ssI5
(dp72
g65
g66
ssI6
(dp73
g68
I0
sI3
I1
sg65
g69
ssI7
(dp74
g68
I0
sI3
I2
sg65
g69
ssI8
(dp75
g68
I0
sI3
I3
sg65
g69
ssI9
(dp76
g68
I0
sI3
I4
sg65
g69
ssI10
(dp77
g68
I0
sI3
I5
sg65
g69
sssS'graph'
p78
(dp79
sS'edge'
p80
(dp81
I1
(dp82
I2
(dp83
S'updated'
p84
I0
sg65
S'u-p'
p85
sS'weight'
p86
I1
ssI3
(dp87
g84
I0
sg65
g85
sg86
I1
sssI2
(dp88
I1
g83
sI3
(dp89
g84
I1
sg65
S'p-p'
p90
sg86
F1.1900000000000002
ssI4
(dp91
g84
I1
sg65
S'u-p'
p92
sg86
F1.1000000000000001
ssI5
(dp93
g84
I0
sg65
g92
sg86
F0.10000000000000001
ssI6
(dp94
g84
I1
sg65
S'p-p'
p95
sg86
I1
ssI7
(dp96
g84
I1
sg65
g95
sg86
I1
ssI8
(dp97
g84
I1
sg65
g95
sg86
I1
ssI9
(dp98
g84
I1
sg65
g95
sg86
I1
ssI10
(dp99
g84
I1
sg65
g95
sg86
I1
sssI3
(dp100
I1
g87
sI2
g89
sI4
(dp101
g84
I1
sg65
g92
sg86
F1.1000000000000001
ssI5
(dp102
g84
I0
sg65
g92
sg86
F0.10000000000000001
ssI6
(dp103
g84
I1
sg65
g95
sg86
F0.10000000000000001
ssI7
(dp104
g84
I1
sg65
g95
sg86
F0.10000000000000001
ssI8
(dp105
g84
I1
sg65
g95
sg86
F0.10000000000000001
ssI9
(dp106
g84
I1
sg65
g95
sg86
F0.10000000000000001
ssI10
(dp107
g84
I1
sg65
g95
sg86
F0.10000000000000001
sssI4
(dp108
I2
g91
sI3
g101
sI6
(dp109
g84
I1
sg65
g92
sg86
I1
ssI7
(dp110
g84
I1
sg65
g92
sg86
I1
ssI8
(dp111
g84
I1
sg65
g92
sg86
I1
ssI9
(dp112
g84
I1
sg65
g92
sg86
I1
ssI10
(dp113
g84
I1
sg65
g92
sg86
I1
sssI5
(dp114
I2
g93
sI3
g102
ssI6
(dp115
I2
g94
sI3
g103
sI4
g109
sI7
(dp116
g84
I1
sg65
g95
sg86
I1
ssI8
(dp117
g84
I1
sg65
g95
sg86
I1
ssI9
(dp118
g84
I1
sg65
g95
sg86
I1
ssI10
(dp119
g84
I1
sg65
g95
sg86
I1
sssI7
(dp120
I2
g96
sI3
g104
sI4
g110
sI6
g116
sI8
(dp121
g84
I1
sg65
g95
sg86
I1
ssI9
(dp122
g84
I1
sg65
g95
sg86
I1
ssI10
(dp123
g84
I1
sg65
g95
sg86
I1
sssI8
(dp124
I2
g97
sI3
g105
sI4
g111
sI6
g117
sI7
g121
sI9
(dp125
g84
I1
sg65
g95
sg86
I1
ssI10
(dp126
g84
I1
sg65
g95
sg86
I1
sssI9
(dp127
I2
g98
sI3
g106
sI4
g112
sI6
g118
sI7
g122
sI8
g125
sI10
(dp128
g84
I1
sg65
g95
sg86
I1
sssI10
(dp129
I2
g99
sI3
g107
sI4
g113
sI6
g119
sI7
g123
sI8
g126
sI9
g128
sssS'adj'
p130
g81
sbsS'latestVersion'
p131
I3
sS'log'
p132
(lp133
(i__main__
Session
p134
(dp135
g66
g6
sS'actions'
p136
(lp137
(i__main__
Action
p138
(dp139
S'ao'
p140
I2
sS'mipNodeID'
p141
I-1
sS'weightInc'
p142
I1
sS'desc'
p143
S'Yale University founded in Old Saybrook, Connecticut, USA in 1701 by Congregationalist ministers. Moved to New Haven, Connecticut in 1716.'
p144
sS'actType'
p145
S'sigEdit'
p146
sg66
g6
sba(i__main__
Action
p147
(dp148
g140
I3
sg141
I-1
sg142
I1
sg143
S'----website is http://www.yale.edu'
p149
sg145
g146
sg66
g6
sbasS'time'
p150
I0
sba(i__main__
Session
p151
(dp152
g66
g7
sg136
(lp153
(i__main__
Action
p154
(dp155
g140
I2
sg141
I-1
sg142
F0.10000000000000001
sg143
S'Yale University, one of eight Ivy League universities, was founded in Old Saybrook, Connecticut, U.S.A. in 1701 by Congregationalist ministers. It moved to New Haven, Connecticut in 1716.'
p156
sg145
S'smallEdit'
p157
sg66
g7
sba(i__main__
Action
p158
(dp159
g140
I3
sg141
I-1
sg142
I1
sg143
S"----Links:* Yale's website is found at http://www.yale.edu"
p160
sg145
g146
sg66
g7
sbasg150
I1
sba(i__main__
Session
p161
(dp162
g66
g5
sg136
(lp163
(i__main__
Action
p164
(dp165
g140
I2
sg141
I-1
sg142
F0.10000000000000001
sg143
S'Yale University, one of eight Ivy League universities, was founded in Old Saybrook, Connecticut, U.S.A. in 1701 by Congregationalist ministers. It moved to New Haven, Connecticut in 1716.'
p166
sg145
g157
sg66
g5
sba(i__main__
Action
p167
(dp168
g140
I3
sg141
I-1
sg142
F0.10000000000000001
sg143
S"See also:*Elihu Yale----Links:* Yale's website is found at http://www.yale.edu"
p169
sg145
g157
sg66
g5
sbasg150
I2
sba(i__main__
Session
p170
(dp171
g66
g45
sg136
(lp172
(i__main__
Action
p173
(dp174
g140
I2
sg141
I-1
sg142
I1
sg143
S"Yale University, one of eight Ivy League universities, was founded in Old Saybrook, Connecticut, U.S.A. in 1701 by Congregationalist ministers. It moved to New Haven, Connecticut in 1716. The Yale campus is in downtown New Haven, and the university is one of the city's largest employers, which sometimes leads to tension between students and local residents."
p175
sg145
g146
sg66
g45
sba(i__main__
Action
p176
(dp177
g140
I6
sg141
I-1
sg142
I1
sg143
S'The college\'s original name was the "Collegiate School"; it was renamed "Yale" after an early benefactor, Elihu Yale.'
p178
sg145
S'added'
p179
sg66
g45
sba(i__main__
Action
p180
(dp181
g140
I7
sg141
I-1
sg142
I1
sg143
S'In the early 20th century, Yale merged with the Sheffield Scientific School.'
p182
sg145
g179
sg66
g45
sba(i__main__
Action
p183
(dp184
g140
I8
sg141
I-1
sg142
I1
sg143
S'In addition to a respected undergraduate college, Yale is noted for its law school, medical school, and school of music. The Divinity School was founded in the early 19th century by Congregationalists who felt that the Harvard University divinity school had become too liberal.'
p185
sg145
g179
sg66
g45
sba(i__main__
Action
p186
(dp187
g140
I9
sg141
I-1
sg142
I1
sg143
S"Yale's library is among the largest in North America. The Beinecke Rare Book Library is housed in a marble building designed by Isamu Noguchi."
p188
sg145
g179
sg66
g45
sba(i__main__
Action
p189
(dp190
g140
I10
sg141
I-1
sg142
I1
sg143
S'Other resources include the Peabody Museum of Natural History and a museum of British art.'
p191
sg145
g179
sg66
g45
sba(i__main__
Action
p192
(dp193
g140
I3
sg141
I-1
sg142
F0.10000000000000001
sg143
S"----Links:* Yale's website is found at http://www.yale.edu"
p194
sg145
g157
sg66
g45
sbasg150
I3
sbasb.