(i__main__
Mip
p1
(dp2
S'users'
p3
(dp4
VConversion script
p5
I5
sV205.180.71.xxx
p6
I1
sVOlivier
p7
I11
sVSomeone else
p8
I13
sVVicki Rosenzweig
p9
I4
ssS'decay'
p10
F0.01
sS'minIncrement'
p11
F0.10000000000000001
sS'currentVersion'
p12
(iversion
Version
p13
(dp14
S'date'
p15
cdatetime
datetime
p16
(S'\x07\xd2\t\r\x15+*\x00\x00\x00'
tRp17
sS'text'
p18
VYale University, one of eight Ivy League universities, was founded in Old Saybrook, Connecticut, U.S.A. in 1701 by Congregationalist ministers. It moved to New Haven, Connecticut in 1716. The Yale campus is in downtown New Haven, and the university is one of the city's largest employers, which sometimes leads to tension between students and local residents.\u000aThe college's original name was the "Collegiate School"; it was renamed "Yale" after an early benefactor, Elihu Yale.\u000aIn the early 20th century, Yale merged with the Sheffield Scientific School.\u000aIn addition to a respected undergraduate college, Yale is noted for its law school, medical school, and school of music. The Divinity School was founded in the early 19th century by Congregationalists who felt that the Harvard University divinity school had become too liberal.\u000aYale's library system is among the largest in North America. The main library, Sterling Memorial Library, contains about 4 million volumes. The Beinecke Rare Book Library is housed in a marble building designed by Gordon Bunshaft, of the firm of Skidmore, Owings, and Merrill. Its courtyard sculptures are by Isamu Noguchi.\u000aOther resources include the Peabody Museum of Natural History and a museum of British art.\u000aYale's sports teams are called the Bulldogs.  They participate in the NCAA's Division I-A.\u000a----\u000aLinks:\u000a* Yale's website is found at http://www.yale.edu
p19
sS'paragraphs'
p20
(lp21
(iversion
Paragraph
p22
(dp23
g18
VYale University, one of eight Ivy League universities, was founded in Old Saybrook, Connecticut, U.S.A. in 1701 by Congregationalist ministers. It moved to New Haven, Connecticut in 1716. The Yale campus is in downtown New Haven, and the university is one of the city's largest employers, which sometimes leads to tension between students and local residents.
p24
sS'changed'
p25
I00
sS'nextindex'
p26
NsS'lastindex'
p27
Nsba(iversion
Paragraph
p28
(dp29
g18
VThe college's original name was the "Collegiate School"; it was renamed "Yale" after an early benefactor, Elihu Yale.
p30
sg25
I00
sg26
Nsg27
Nsba(iversion
Paragraph
p31
(dp32
g18
VIn the early 20th century, Yale merged with the Sheffield Scientific School.
p33
sg25
I00
sg26
Nsg27
Nsba(iversion
Paragraph
p34
(dp35
g18
VIn addition to a respected undergraduate college, Yale is noted for its law school, medical school, and school of music. The Divinity School was founded in the early 19th century by Congregationalists who felt that the Harvard University divinity school had become too liberal.
p36
sg25
I00
sg26
Nsg27
Nsba(iversion
Paragraph
p37
(dp38
g18
VYale's library system is among the largest in North America. The main library, Sterling Memorial Library, contains about 4 million volumes. The Beinecke Rare Book Library is housed in a marble building designed by Gordon Bunshaft, of the firm of Skidmore, Owings, and Merrill. Its courtyard sculptures are by Isamu Noguchi.
p39
sg25
I00
sg26
Nsg27
Nsba(iversion
Paragraph
p40
(dp41
g18
VOther resources include the Peabody Museum of Natural History and a museum of British art.
p42
sg25
I00
sg26
Nsg27
Nsba(iversion
Paragraph
p43
(dp44
g18
VYale's sports teams are called the Bulldogs.  They participate in the NCAA's Division I-A.
p45
sg25
I00
sg26
Nsg27
Nsba(iversion
Paragraph
p46
(dp47
g18
V----Links:* Yale's website is found at http://www.yale.edu
p48
sg25
I00
sg26
Nsg27
NsbasS'author'
p49
g8
sbsS'pars'
p50
(lp51
(dp52
I0
I2
sI1
I3
sa(dp53
I0
I2
sI1
I3
sa(dp54
I0
I2
sI1
I3
sa(dp55
I0
I2
sI1
I6
sI2
I7
sI3
I8
sI4
I9
sI5
I10
sI6
I3
sa(dp56
I0
I2
sI1
I6
sI2
I7
sI3
I8
sI4
I9
sI5
I10
sI6
I12
sI7
I3
sa(dp57
I0
I2
sI1
I6
sI2
I7
sI3
I8
sI4
I9
sI5
I10
sI6
I12
sI7
I3
sasS'nodeIdsToUsers'
p58
(dp59
I1
g6
sI11
g7
sI4
g9
sI5
g5
sI13
g8
ssS'sigIncrement'
p60
I1
sS'lastID'
p61
I13
sS'mip'
p62
ccopy_reg
_reconstructor
p63
(cnetworkx.classes.graph
Graph
p64
c__builtin__
object
p65
NtRp66
(dp67
S'node'
p68
(dp69
I1
(dp70
S'type'
p71
S'user'
p72
ssI2
(dp73
I0
I0
sI1
I0
sI2
I0
sI3
I0
sI4
I0
sI5
I0
sS'deleted'
p74
I0
sg71
S'par'
p75
ssI3
(dp76
I0
I1
sI1
I1
sI2
I1
sI3
I6
sI4
I7
sI5
I7
sg74
I0
sg71
g75
ssI4
(dp77
g71
g72
ssI5
(dp78
g71
g72
ssI6
(dp79
g74
I0
sI4
I1
sI3
I1
sg71
g75
sI5
I1
ssI7
(dp80
g74
I0
sI4
I2
sI3
I2
sg71
g75
sI5
I2
ssI8
(dp81
g74
I0
sI4
I3
sI3
I3
sg71
g75
sI5
I3
ssI9
(dp82
g74
I0
sI4
I4
sI3
I4
sg71
g75
sI5
I4
ssI10
(dp83
g74
I0
sI4
I5
sI3
I5
sg71
g75
sI5
I5
ssI11
(dp84
g71
g72
ssI12
(dp85
g74
I0
sI4
I6
sg71
g75
sI5
I6
ssI13
(dp86
g71
g72
sssS'graph'
p87
(dp88
sS'edge'
p89
(dp90
I1
(dp91
I2
(dp92
S'updated'
p93
I0
sg71
S'u-p'
p94
sS'weight'
p95
I1
ssI3
(dp96
g93
I0
sg71
g94
sg95
I1
sssI2
(dp97
I1
g92
sI3
(dp98
g93
I0
sg71
S'p-p'
p99
sg95
F1.1700000000000002
ssI4
(dp100
g93
I0
sg71
S'u-p'
p101
sg95
F1.1000000000000001
ssI5
(dp102
g93
I0
sg71
g101
sg95
F0.10000000000000001
ssI6
(dp103
g93
I0
sg71
S'p-p'
p104
sg95
F0.97999999999999998
ssI7
(dp105
g93
I0
sg71
g104
sg95
F0.97999999999999998
ssI8
(dp106
g93
I0
sg71
g104
sg95
F0.97999999999999998
ssI9
(dp107
g93
I1
sg71
g104
sg95
F1.0900000000000001
ssI10
(dp108
g93
I0
sg71
g104
sg95
F0.97999999999999998
ssI11
(dp109
g93
I0
sg71
g101
sg95
F0.10000000000000001
ssI12
(dp110
g93
I0
sg71
g104
sg95
F0.090000000000000011
ssI13
(dp111
g93
I1
sg71
g101
sg95
F0.10000000000000001
sssI3
(dp112
I1
g96
sI2
g98
sI4
(dp113
g93
I0
sg71
g101
sg95
F1.1000000000000001
ssI5
(dp114
g93
I0
sg71
g101
sg95
F0.10000000000000001
ssI6
(dp115
g93
I0
sg71
g104
sg95
F0.080000000000000016
ssI7
(dp116
g93
I0
sg71
g104
sg95
F0.080000000000000016
ssI8
(dp117
g93
I0
sg71
g104
sg95
F0.080000000000000016
ssI9
(dp118
g93
I1
sg71
g104
sg95
F0.19
ssI10
(dp119
g93
I0
sg71
g104
sg95
F0.080000000000000016
ssI11
(dp120
g93
I0
sg71
g101
sg95
F0.10000000000000001
ssI12
(dp121
g93
I0
sg71
g104
sg95
F0.090000000000000011
ssI13
(dp122
g93
I1
sg71
g101
sg95
F0.10000000000000001
sssI4
(dp123
I2
g100
sI3
g113
sI6
(dp124
g93
I0
sg71
g101
sg95
I1
ssI7
(dp125
g93
I0
sg71
g101
sg95
I1
ssI8
(dp126
g93
I0
sg71
g101
sg95
I1
ssI9
(dp127
g93
I0
sg71
g101
sg95
I1
ssI10
(dp128
g93
I0
sg71
g101
sg95
I1
sssI5
(dp129
I2
g102
sI3
g114
ssI6
(dp130
I2
g103
sI3
g115
sI4
g124
sI7
(dp131
g93
I0
sg71
g104
sg95
F0.97999999999999998
ssI8
(dp132
g93
I0
sg71
g104
sg95
F0.97999999999999998
ssI9
(dp133
g93
I0
sg71
g104
sg95
F0.97999999999999998
ssI10
(dp134
g93
I0
sg71
g104
sg95
F0.97999999999999998
sssI7
(dp135
I2
g105
sI3
g116
sI4
g125
sI6
g131
sI8
(dp136
g93
I0
sg71
g104
sg95
F0.97999999999999998
ssI9
(dp137
g93
I0
sg71
g104
sg95
F0.97999999999999998
ssI10
(dp138
g93
I0
sg71
g104
sg95
F0.97999999999999998
sssI8
(dp139
I2
g106
sI3
g117
sI4
g126
sI6
g132
sI7
g136
sI9
(dp140
g93
I1
sg71
g104
sg95
F1.0900000000000001
ssI10
(dp141
g93
I0
sg71
g104
sg95
F0.97999999999999998
ssI11
(dp142
g93
I0
sg71
g101
sg95
F0.10000000000000001
ssI12
(dp143
g93
I0
sg71
g104
sg95
F0.090000000000000011
ssI13
(dp144
g93
I1
sg71
g101
sg95
F0.10000000000000001
sssI9
(dp145
I2
g107
sI3
g118
sI4
g127
sI6
g133
sI7
g137
sI8
g140
sI10
(dp146
g93
I1
sg71
g104
sg95
F1.0900000000000001
ssI11
(dp147
g93
I0
sg71
g101
sg95
F0.10000000000000001
ssI12
(dp148
g93
I0
sg71
g104
sg95
F0.090000000000000011
ssI13
(dp149
g93
I1
sg71
g101
sg95
I1
sssI10
(dp150
I2
g108
sI3
g119
sI4
g128
sI6
g134
sI7
g138
sI8
g141
sI9
g146
sI11
(dp151
g93
I0
sg71
g101
sg95
F0.10000000000000001
ssI12
(dp152
g93
I0
sg71
g104
sg95
F0.090000000000000011
ssI13
(dp153
g93
I1
sg71
g101
sg95
F0.10000000000000001
sssI11
(dp154
I2
g109
sI3
g120
sI8
g142
sI9
g147
sI10
g151
sI12
(dp155
g93
I0
sg71
g101
sg95
I1
sssI12
(dp156
I2
g110
sI3
g121
sI8
g143
sI9
g148
sI10
g152
sI11
g155
ssI13
(dp157
I8
g144
sI9
g149
sI2
g111
sI3
g122
sI10
g153
sssS'adj'
p158
g90
sbsS'latestVersion'
p159
I5
sS'log'
p160
(lp161
(i__main__
Session
p162
(dp163
g72
g6
sS'actions'
p164
(lp165
(i__main__
Action
p166
(dp167
S'ao'
p168
I2
sS'mipNodeID'
p169
I-1
sS'weightInc'
p170
I1
sS'desc'
p171
S'Yale University founded in Old Saybrook, Connecticut, USA in 1701 by Congregationalist ministers. Moved to New Haven, Connecticut in 1716.'
p172
sS'actType'
p173
S'sigEdit'
p174
sg72
g6
sba(i__main__
Action
p175
(dp176
g168
I3
sg169
I-1
sg170
I1
sg171
S'----website is http://www.yale.edu'
p177
sg173
g174
sg72
g6
sbasS'time'
p178
I0
sba(i__main__
Session
p179
(dp180
g72
g9
sg164
(lp181
(i__main__
Action
p182
(dp183
g168
I2
sg169
I-1
sg170
F0.10000000000000001
sg171
S'Yale University, one of eight Ivy League universities, was founded in Old Saybrook, Connecticut, U.S.A. in 1701 by Congregationalist ministers. It moved to New Haven, Connecticut in 1716.'
p184
sg173
S'smallEdit'
p185
sg72
g9
sba(i__main__
Action
p186
(dp187
g168
I3
sg169
I-1
sg170
I1
sg171
S"----Links:* Yale's website is found at http://www.yale.edu"
p188
sg173
g174
sg72
g9
sbasg178
I1
sba(i__main__
Session
p189
(dp190
g72
g5
sg164
(lp191
(i__main__
Action
p192
(dp193
g168
I2
sg169
I-1
sg170
F0.10000000000000001
sg171
S'Yale University, one of eight Ivy League universities, was founded in Old Saybrook, Connecticut, U.S.A. in 1701 by Congregationalist ministers. It moved to New Haven, Connecticut in 1716.'
p194
sg173
g185
sg72
g5
sba(i__main__
Action
p195
(dp196
g168
I3
sg169
I-1
sg170
F0.10000000000000001
sg171
S"See also:*Elihu Yale----Links:* Yale's website is found at http://www.yale.edu"
p197
sg173
g185
sg72
g5
sbasg178
I2
sba(i__main__
Session
p198
(dp199
g72
VVicki Rosenzweig
p200
sg164
(lp201
(i__main__
Action
p202
(dp203
g168
I2
sg169
I-1
sg170
I1
sg171
S"Yale University, one of eight Ivy League universities, was founded in Old Saybrook, Connecticut, U.S.A. in 1701 by Congregationalist ministers. It moved to New Haven, Connecticut in 1716. The Yale campus is in downtown New Haven, and the university is one of the city's largest employers, which sometimes leads to tension between students and local residents."
p204
sg173
g174
sg72
g200
sba(i__main__
Action
p205
(dp206
g168
I6
sg169
I-1
sg170
I1
sg171
S'The college\'s original name was the "Collegiate School"; it was renamed "Yale" after an early benefactor, Elihu Yale.'
p207
sg173
S'added'
p208
sg72
g200
sba(i__main__
Action
p209
(dp210
g168
I7
sg169
I-1
sg170
I1
sg171
S'In the early 20th century, Yale merged with the Sheffield Scientific School.'
p211
sg173
g208
sg72
g200
sba(i__main__
Action
p212
(dp213
g168
I8
sg169
I-1
sg170
I1
sg171
S'In addition to a respected undergraduate college, Yale is noted for its law school, medical school, and school of music. The Divinity School was founded in the early 19th century by Congregationalists who felt that the Harvard University divinity school had become too liberal.'
p214
sg173
g208
sg72
g200
sba(i__main__
Action
p215
(dp216
g168
I9
sg169
I-1
sg170
I1
sg171
S"Yale's library is among the largest in North America. The Beinecke Rare Book Library is housed in a marble building designed by Isamu Noguchi."
p217
sg173
g208
sg72
g200
sba(i__main__
Action
p218
(dp219
g168
I10
sg169
I-1
sg170
I1
sg171
S'Other resources include the Peabody Museum of Natural History and a museum of British art.'
p220
sg173
g208
sg72
g200
sba(i__main__
Action
p221
(dp222
g168
I3
sg169
I-1
sg170
F0.10000000000000001
sg171
S"----Links:* Yale's website is found at http://www.yale.edu"
p223
sg173
g185
sg72
g200
sbasg178
I3
sba(i__main__
Session
p224
(dp225
g72
g7
sg164
(lp226
(i__main__
Action
p227
(dp228
g168
I2
sg169
I-1
sg170
F0.10000000000000001
sg171
S"Yale University, one of eight Ivy League universities, was founded in Old Saybrook, Connecticut, U.S.A. in 1701 by Congregationalist ministers. It moved to New Haven, Connecticut in 1716. The Yale campus is in downtown New Haven, and the university is one of the city's largest employers, which sometimes leads to tension between students and local residents."
p229
sg173
g185
sg72
g7
sba(i__main__
Action
p230
(dp231
g168
I8
sg169
I-1
sg170
F0.10000000000000001
sg171
S'In addition to a respected undergraduate college, Yale is noted for its law school, medical school, and school of music. The Divinity School was founded in the early 19th century by Congregationalists who felt that the Harvard University divinity school had become too liberal.'
p232
sg173
g185
sg72
g7
sba(i__main__
Action
p233
(dp234
g168
I9
sg169
I-1
sg170
F0.10000000000000001
sg171
S"Yale's library is among the largest in North America. The Beinecke Rare Book Library is housed in a marble building designed by Isamu Noguchi."
p235
sg173
g185
sg72
g7
sba(i__main__
Action
p236
(dp237
g168
I10
sg169
I-1
sg170
F0.10000000000000001
sg171
S'Other resources include the Peabody Museum of Natural History and a museum of British art.'
p238
sg173
g185
sg72
g7
sba(i__main__
Action
p239
(dp240
g168
I12
sg169
I-1
sg170
I1
sg171
S"Yale's sports teams are called the Bulldogs.  They participate in the NCAA's Division I-A."
p241
sg173
g208
sg72
g7
sba(i__main__
Action
p242
(dp243
g168
I3
sg169
I-1
sg170
F0.10000000000000001
sg171
S"----Links:* Yale's website is found at http://www.yale.edu"
p244
sg173
g185
sg72
g7
sbasg178
I4
sba(i__main__
Session
p245
(dp246
g72
g8
sg164
(lp247
(i__main__
Action
p248
(dp249
g168
I2
sg169
I-1
sg170
F0.10000000000000001
sg171
S"Yale University, one of eight Ivy League universities, was founded in Old Saybrook, Connecticut, U.S.A. in 1701 by Congregationalist ministers. It moved to New Haven, Connecticut in 1716. The Yale campus is in downtown New Haven, and the university is one of the city's largest employers, which sometimes leads to tension between students and local residents."
p250
sg173
g185
sg72
g8
sba(i__main__
Action
p251
(dp252
g168
I8
sg169
I-1
sg170
F0.10000000000000001
sg171
S'In addition to a respected undergraduate college, Yale is noted for its law school, medical school, and school of music. The Divinity School was founded in the early 19th century by Congregationalists who felt that the Harvard University divinity school had become too liberal.'
p253
sg173
g185
sg72
g8
sba(i__main__
Action
p254
(dp255
g168
I9
sg169
I-1
sg170
I1
sg171
S"Yale's library system is among the largest in North America. The main library, Sterling Memorial Library, contains about 4 million volumes. The Beinecke Rare Book Library is housed in a marble building designed by Gordon Bunshaft, of the firm of Skidmore, Owings, and Merrill. Its courtyard sculptures are by Isamu Noguchi."
p256
sg173
g174
sg72
g8
sba(i__main__
Action
p257
(dp258
g168
I10
sg169
I-1
sg170
F0.10000000000000001
sg171
S'Other resources include the Peabody Museum of Natural History and a museum of British art.'
p259
sg173
g185
sg72
g8
sba(i__main__
Action
p260
(dp261
g168
I3
sg169
I-1
sg170
F0.10000000000000001
sg171
S"----Links:* Yale's website is found at http://www.yale.edu"
p262
sg173
g185
sg72
g8
sbasg178
I5
sbasb.